
AVRASM ver. 2.1.30  I:\EmC-Proj\MFRC522-PH1\Debug\List\main.asm Fri Oct 03 11:53:33 2025

I:\EmC-Proj\MFRC522-PH1\Debug\List\main.asm(1088): warning: Register r5 already defined by the .DEF directive
I:\EmC-Proj\MFRC522-PH1\Debug\List\main.asm(1089): warning: Register r4 already defined by the .DEF directive
I:\EmC-Proj\MFRC522-PH1\Debug\List\main.asm(1090): warning: Register r7 already defined by the .DEF directive
                 
                 
                 ;CodeVisionAVR C Compiler V3.14 Advanced
                 ;(C) Copyright 1998-2014 Pavel Haiduc, HP InfoTech s.r.l.
                 ;http://www.hpinfotech.com
                 
                 ;Build configuration    : Debug
                 ;Chip type              : ATmega32
                 ;Program type           : Application
                 ;Clock frequency        : 8.000000 MHz
                 ;Memory model           : Small
                 ;Optimize for           : Size
                 ;(s)printf features     : int, width
                 ;(s)scanf features      : int, width
                 ;External RAM size      : 0
                 ;Data Stack size        : 512 byte(s)
                 ;Heap size              : 0 byte(s)
                 ;Promote 'char' to 'int': Yes
                 ;'char' is unsigned     : Yes
                 ;8 bit enums            : Yes
                 ;Global 'const' stored in FLASH: Yes
                 ;Enhanced function parameter passing: Yes
                 ;Enhanced core instructions: On
                 ;Automatic register allocation for global variables: On
                 ;Smart register allocation: On
                 
                 	#define _MODEL_SMALL_
                 
                 	#pragma AVRPART ADMIN PART_NAME ATmega32
                 	#pragma AVRPART MEMORY PROG_FLASH 32768
                 	#pragma AVRPART MEMORY EEPROM 1024
                 	#pragma AVRPART MEMORY INT_SRAM SIZE 2048
                 	#pragma AVRPART MEMORY INT_SRAM START_ADDR 0x60
                 
                 	#define CALL_SUPPORTED 1
                 
                 	.LISTMAC
                 	.EQU UDRE=0x5
                 	.EQU RXC=0x7
                 	.EQU USR=0xB
                 	.EQU UDR=0xC
                 	.EQU SPSR=0xE
                 	.EQU SPDR=0xF
                 	.EQU EERE=0x0
                 	.EQU EEWE=0x1
                 	.EQU EEMWE=0x2
                 	.EQU EECR=0x1C
                 	.EQU EEDR=0x1D
                 	.EQU EEARL=0x1E
                 	.EQU EEARH=0x1F
                 	.EQU WDTCR=0x21
                 	.EQU MCUCR=0x35
                 	.EQU GICR=0x3B
                 	.EQU SPL=0x3D
                 	.EQU SPH=0x3E
                 	.EQU SREG=0x3F
                 
                 	.DEF R0X0=R0
                 	.DEF R0X1=R1
                 	.DEF R0X2=R2
                 	.DEF R0X3=R3
                 	.DEF R0X4=R4
                 	.DEF R0X5=R5
                 	.DEF R0X6=R6
                 	.DEF R0X7=R7
                 	.DEF R0X8=R8
                 	.DEF R0X9=R9
                 	.DEF R0XA=R10
                 	.DEF R0XB=R11
                 	.DEF R0XC=R12
                 	.DEF R0XD=R13
                 	.DEF R0XE=R14
                 	.DEF R0XF=R15
                 	.DEF R0X10=R16
                 	.DEF R0X11=R17
                 	.DEF R0X12=R18
                 	.DEF R0X13=R19
                 	.DEF R0X14=R20
                 	.DEF R0X15=R21
                 	.DEF R0X16=R22
                 	.DEF R0X17=R23
                 	.DEF R0X18=R24
                 	.DEF R0X19=R25
                 	.DEF R0X1A=R26
                 	.DEF R0X1B=R27
                 	.DEF R0X1C=R28
                 	.DEF R0X1D=R29
                 	.DEF R0X1E=R30
                 	.DEF R0X1F=R31
                 
                 	.EQU __SRAM_START=0x0060
                 	.EQU __SRAM_END=0x085F
                 	.EQU __DSTACK_SIZE=0x0200
                 	.EQU __HEAP_SIZE=0x0000
                 	.EQU __CLEAR_SRAM_SIZE=__SRAM_END-__SRAM_START+1
                 
                 	.MACRO __CPD1N
                 	CPI  R30,LOW(@0)
                 	LDI  R26,HIGH(@0)
                 	CPC  R31,R26
                 	LDI  R26,BYTE3(@0)
                 	CPC  R22,R26
                 	LDI  R26,BYTE4(@0)
                 	CPC  R23,R26
                 	.ENDM
                 
                 	.MACRO __CPD2N
                 	CPI  R26,LOW(@0)
                 	LDI  R30,HIGH(@0)
                 	CPC  R27,R30
                 	LDI  R30,BYTE3(@0)
                 	CPC  R24,R30
                 	LDI  R30,BYTE4(@0)
                 	CPC  R25,R30
                 	.ENDM
                 
                 	.MACRO __CPWRR
                 	CP   R@0,R@2
                 	CPC  R@1,R@3
                 	.ENDM
                 
                 	.MACRO __CPWRN
                 	CPI  R@0,LOW(@2)
                 	LDI  R30,HIGH(@2)
                 	CPC  R@1,R30
                 	.ENDM
                 
                 	.MACRO __ADDB1MN
                 	SUBI R30,LOW(-@0-(@1))
                 	.ENDM
                 
                 	.MACRO __ADDB2MN
                 	SUBI R26,LOW(-@0-(@1))
                 	.ENDM
                 
                 	.MACRO __ADDW1MN
                 	SUBI R30,LOW(-@0-(@1))
                 	SBCI R31,HIGH(-@0-(@1))
                 	.ENDM
                 
                 	.MACRO __ADDW2MN
                 	SUBI R26,LOW(-@0-(@1))
                 	SBCI R27,HIGH(-@0-(@1))
                 	.ENDM
                 
                 	.MACRO __ADDW1FN
                 	SUBI R30,LOW(-2*@0-(@1))
                 	SBCI R31,HIGH(-2*@0-(@1))
                 	.ENDM
                 
                 	.MACRO __ADDD1FN
                 	SUBI R30,LOW(-2*@0-(@1))
                 	SBCI R31,HIGH(-2*@0-(@1))
                 	SBCI R22,BYTE3(-2*@0-(@1))
                 	.ENDM
                 
                 	.MACRO __ADDD1N
                 	SUBI R30,LOW(-@0)
                 	SBCI R31,HIGH(-@0)
                 	SBCI R22,BYTE3(-@0)
                 	SBCI R23,BYTE4(-@0)
                 	.ENDM
                 
                 	.MACRO __ADDD2N
                 	SUBI R26,LOW(-@0)
                 	SBCI R27,HIGH(-@0)
                 	SBCI R24,BYTE3(-@0)
                 	SBCI R25,BYTE4(-@0)
                 	.ENDM
                 
                 	.MACRO __SUBD1N
                 	SUBI R30,LOW(@0)
                 	SBCI R31,HIGH(@0)
                 	SBCI R22,BYTE3(@0)
                 	SBCI R23,BYTE4(@0)
                 	.ENDM
                 
                 	.MACRO __SUBD2N
                 	SUBI R26,LOW(@0)
                 	SBCI R27,HIGH(@0)
                 	SBCI R24,BYTE3(@0)
                 	SBCI R25,BYTE4(@0)
                 	.ENDM
                 
                 	.MACRO __ANDBMNN
                 	LDS  R30,@0+(@1)
                 	ANDI R30,LOW(@2)
                 	STS  @0+(@1),R30
                 	.ENDM
                 
                 	.MACRO __ANDWMNN
                 	LDS  R30,@0+(@1)
                 	ANDI R30,LOW(@2)
                 	STS  @0+(@1),R30
                 	LDS  R30,@0+(@1)+1
                 	ANDI R30,HIGH(@2)
                 	STS  @0+(@1)+1,R30
                 	.ENDM
                 
                 	.MACRO __ANDD1N
                 	ANDI R30,LOW(@0)
                 	ANDI R31,HIGH(@0)
                 	ANDI R22,BYTE3(@0)
                 	ANDI R23,BYTE4(@0)
                 	.ENDM
                 
                 	.MACRO __ANDD2N
                 	ANDI R26,LOW(@0)
                 	ANDI R27,HIGH(@0)
                 	ANDI R24,BYTE3(@0)
                 	ANDI R25,BYTE4(@0)
                 	.ENDM
                 
                 	.MACRO __ORBMNN
                 	LDS  R30,@0+(@1)
                 	ORI  R30,LOW(@2)
                 	STS  @0+(@1),R30
                 	.ENDM
                 
                 	.MACRO __ORWMNN
                 	LDS  R30,@0+(@1)
                 	ORI  R30,LOW(@2)
                 	STS  @0+(@1),R30
                 	LDS  R30,@0+(@1)+1
                 	ORI  R30,HIGH(@2)
                 	STS  @0+(@1)+1,R30
                 	.ENDM
                 
                 	.MACRO __ORD1N
                 	ORI  R30,LOW(@0)
                 	ORI  R31,HIGH(@0)
                 	ORI  R22,BYTE3(@0)
                 	ORI  R23,BYTE4(@0)
                 	.ENDM
                 
                 	.MACRO __ORD2N
                 	ORI  R26,LOW(@0)
                 	ORI  R27,HIGH(@0)
                 	ORI  R24,BYTE3(@0)
                 	ORI  R25,BYTE4(@0)
                 	.ENDM
                 
                 	.MACRO __DELAY_USB
                 	LDI  R24,LOW(@0)
                 __DELAY_USB_LOOP:
                 	DEC  R24
                 	BRNE __DELAY_USB_LOOP
                 	.ENDM
                 
                 	.MACRO __DELAY_USW
                 	LDI  R24,LOW(@0)
                 	LDI  R25,HIGH(@0)
                 __DELAY_USW_LOOP:
                 	SBIW R24,1
                 	BRNE __DELAY_USW_LOOP
                 	.ENDM
                 
                 	.MACRO __GETD1S
                 	LDD  R30,Y+@0
                 	LDD  R31,Y+@0+1
                 	LDD  R22,Y+@0+2
                 	LDD  R23,Y+@0+3
                 	.ENDM
                 
                 	.MACRO __GETD2S
                 	LDD  R26,Y+@0
                 	LDD  R27,Y+@0+1
                 	LDD  R24,Y+@0+2
                 	LDD  R25,Y+@0+3
                 	.ENDM
                 
                 	.MACRO __PUTD1S
                 	STD  Y+@0,R30
                 	STD  Y+@0+1,R31
                 	STD  Y+@0+2,R22
                 	STD  Y+@0+3,R23
                 	.ENDM
                 
                 	.MACRO __PUTD2S
                 	STD  Y+@0,R26
                 	STD  Y+@0+1,R27
                 	STD  Y+@0+2,R24
                 	STD  Y+@0+3,R25
                 	.ENDM
                 
                 	.MACRO __PUTDZ2
                 	STD  Z+@0,R26
                 	STD  Z+@0+1,R27
                 	STD  Z+@0+2,R24
                 	STD  Z+@0+3,R25
                 	.ENDM
                 
                 	.MACRO __CLRD1S
                 	STD  Y+@0,R30
                 	STD  Y+@0+1,R30
                 	STD  Y+@0+2,R30
                 	STD  Y+@0+3,R30
                 	.ENDM
                 
                 	.MACRO __POINTB1MN
                 	LDI  R30,LOW(@0+(@1))
                 	.ENDM
                 
                 	.MACRO __POINTW1MN
                 	LDI  R30,LOW(@0+(@1))
                 	LDI  R31,HIGH(@0+(@1))
                 	.ENDM
                 
                 	.MACRO __POINTD1M
                 	LDI  R30,LOW(@0)
                 	LDI  R31,HIGH(@0)
                 	LDI  R22,BYTE3(@0)
                 	LDI  R23,BYTE4(@0)
                 	.ENDM
                 
                 	.MACRO __POINTW1FN
                 	LDI  R30,LOW(2*@0+(@1))
                 	LDI  R31,HIGH(2*@0+(@1))
                 	.ENDM
                 
                 	.MACRO __POINTD1FN
                 	LDI  R30,LOW(2*@0+(@1))
                 	LDI  R31,HIGH(2*@0+(@1))
                 	LDI  R22,BYTE3(2*@0+(@1))
                 	LDI  R23,BYTE4(2*@0+(@1))
                 	.ENDM
                 
                 	.MACRO __POINTB2MN
                 	LDI  R26,LOW(@0+(@1))
                 	.ENDM
                 
                 	.MACRO __POINTW2MN
                 	LDI  R26,LOW(@0+(@1))
                 	LDI  R27,HIGH(@0+(@1))
                 	.ENDM
                 
                 	.MACRO __POINTW2FN
                 	LDI  R26,LOW(2*@0+(@1))
                 	LDI  R27,HIGH(2*@0+(@1))
                 	.ENDM
                 
                 	.MACRO __POINTD2FN
                 	LDI  R26,LOW(2*@0+(@1))
                 	LDI  R27,HIGH(2*@0+(@1))
                 	LDI  R24,BYTE3(2*@0+(@1))
                 	LDI  R25,BYTE4(2*@0+(@1))
                 	.ENDM
                 
                 	.MACRO __POINTBRM
                 	LDI  R@0,LOW(@1)
                 	.ENDM
                 
                 	.MACRO __POINTWRM
                 	LDI  R@0,LOW(@2)
                 	LDI  R@1,HIGH(@2)
                 	.ENDM
                 
                 	.MACRO __POINTBRMN
                 	LDI  R@0,LOW(@1+(@2))
                 	.ENDM
                 
                 	.MACRO __POINTWRMN
                 	LDI  R@0,LOW(@2+(@3))
                 	LDI  R@1,HIGH(@2+(@3))
                 	.ENDM
                 
                 	.MACRO __POINTWRFN
                 	LDI  R@0,LOW(@2*2+(@3))
                 	LDI  R@1,HIGH(@2*2+(@3))
                 	.ENDM
                 
                 	.MACRO __GETD1N
                 	LDI  R30,LOW(@0)
                 	LDI  R31,HIGH(@0)
                 	LDI  R22,BYTE3(@0)
                 	LDI  R23,BYTE4(@0)
                 	.ENDM
                 
                 	.MACRO __GETD2N
                 	LDI  R26,LOW(@0)
                 	LDI  R27,HIGH(@0)
                 	LDI  R24,BYTE3(@0)
                 	LDI  R25,BYTE4(@0)
                 	.ENDM
                 
                 	.MACRO __GETB1MN
                 	LDS  R30,@0+(@1)
                 	.ENDM
                 
                 	.MACRO __GETB1HMN
                 	LDS  R31,@0+(@1)
                 	.ENDM
                 
                 	.MACRO __GETW1MN
                 	LDS  R30,@0+(@1)
                 	LDS  R31,@0+(@1)+1
                 	.ENDM
                 
                 	.MACRO __GETD1MN
                 	LDS  R30,@0+(@1)
                 	LDS  R31,@0+(@1)+1
                 	LDS  R22,@0+(@1)+2
                 	LDS  R23,@0+(@1)+3
                 	.ENDM
                 
                 	.MACRO __GETBRMN
                 	LDS  R@0,@1+(@2)
                 	.ENDM
                 
                 	.MACRO __GETWRMN
                 	LDS  R@0,@2+(@3)
                 	LDS  R@1,@2+(@3)+1
                 	.ENDM
                 
                 	.MACRO __GETWRZ
                 	LDD  R@0,Z+@2
                 	LDD  R@1,Z+@2+1
                 	.ENDM
                 
                 	.MACRO __GETD2Z
                 	LDD  R26,Z+@0
                 	LDD  R27,Z+@0+1
                 	LDD  R24,Z+@0+2
                 	LDD  R25,Z+@0+3
                 	.ENDM
                 
                 	.MACRO __GETB2MN
                 	LDS  R26,@0+(@1)
                 	.ENDM
                 
                 	.MACRO __GETW2MN
                 	LDS  R26,@0+(@1)
                 	LDS  R27,@0+(@1)+1
                 	.ENDM
                 
                 	.MACRO __GETD2MN
                 	LDS  R26,@0+(@1)
                 	LDS  R27,@0+(@1)+1
                 	LDS  R24,@0+(@1)+2
                 	LDS  R25,@0+(@1)+3
                 	.ENDM
                 
                 	.MACRO __PUTB1MN
                 	STS  @0+(@1),R30
                 	.ENDM
                 
                 	.MACRO __PUTW1MN
                 	STS  @0+(@1),R30
                 	STS  @0+(@1)+1,R31
                 	.ENDM
                 
                 	.MACRO __PUTD1MN
                 	STS  @0+(@1),R30
                 	STS  @0+(@1)+1,R31
                 	STS  @0+(@1)+2,R22
                 	STS  @0+(@1)+3,R23
                 	.ENDM
                 
                 	.MACRO __PUTB1EN
                 	LDI  R26,LOW(@0+(@1))
                 	LDI  R27,HIGH(@0+(@1))
                 	CALL __EEPROMWRB
                 	.ENDM
                 
                 	.MACRO __PUTW1EN
                 	LDI  R26,LOW(@0+(@1))
                 	LDI  R27,HIGH(@0+(@1))
                 	CALL __EEPROMWRW
                 	.ENDM
                 
                 	.MACRO __PUTD1EN
                 	LDI  R26,LOW(@0+(@1))
                 	LDI  R27,HIGH(@0+(@1))
                 	CALL __EEPROMWRD
                 	.ENDM
                 
                 	.MACRO __PUTBR0MN
                 	STS  @0+(@1),R0
                 	.ENDM
                 
                 	.MACRO __PUTBMRN
                 	STS  @0+(@1),R@2
                 	.ENDM
                 
                 	.MACRO __PUTWMRN
                 	STS  @0+(@1),R@2
                 	STS  @0+(@1)+1,R@3
                 	.ENDM
                 
                 	.MACRO __PUTBZR
                 	STD  Z+@1,R@0
                 	.ENDM
                 
                 	.MACRO __PUTWZR
                 	STD  Z+@2,R@0
                 	STD  Z+@2+1,R@1
                 	.ENDM
                 
                 	.MACRO __GETW1R
                 	MOV  R30,R@0
                 	MOV  R31,R@1
                 	.ENDM
                 
                 	.MACRO __GETW2R
                 	MOV  R26,R@0
                 	MOV  R27,R@1
                 	.ENDM
                 
                 	.MACRO __GETWRN
                 	LDI  R@0,LOW(@2)
                 	LDI  R@1,HIGH(@2)
                 	.ENDM
                 
                 	.MACRO __PUTW1R
                 	MOV  R@0,R30
                 	MOV  R@1,R31
                 	.ENDM
                 
                 	.MACRO __PUTW2R
                 	MOV  R@0,R26
                 	MOV  R@1,R27
                 	.ENDM
                 
                 	.MACRO __ADDWRN
                 	SUBI R@0,LOW(-@2)
                 	SBCI R@1,HIGH(-@2)
                 	.ENDM
                 
                 	.MACRO __ADDWRR
                 	ADD  R@0,R@2
                 	ADC  R@1,R@3
                 	.ENDM
                 
                 	.MACRO __SUBWRN
                 	SUBI R@0,LOW(@2)
                 	SBCI R@1,HIGH(@2)
                 	.ENDM
                 
                 	.MACRO __SUBWRR
                 	SUB  R@0,R@2
                 	SBC  R@1,R@3
                 	.ENDM
                 
                 	.MACRO __ANDWRN
                 	ANDI R@0,LOW(@2)
                 	ANDI R@1,HIGH(@2)
                 	.ENDM
                 
                 	.MACRO __ANDWRR
                 	AND  R@0,R@2
                 	AND  R@1,R@3
                 	.ENDM
                 
                 	.MACRO __ORWRN
                 	ORI  R@0,LOW(@2)
                 	ORI  R@1,HIGH(@2)
                 	.ENDM
                 
                 	.MACRO __ORWRR
                 	OR   R@0,R@2
                 	OR   R@1,R@3
                 	.ENDM
                 
                 	.MACRO __EORWRR
                 	EOR  R@0,R@2
                 	EOR  R@1,R@3
                 	.ENDM
                 
                 	.MACRO __GETWRS
                 	LDD  R@0,Y+@2
                 	LDD  R@1,Y+@2+1
                 	.ENDM
                 
                 	.MACRO __PUTBSR
                 	STD  Y+@1,R@0
                 	.ENDM
                 
                 	.MACRO __PUTWSR
                 	STD  Y+@2,R@0
                 	STD  Y+@2+1,R@1
                 	.ENDM
                 
                 	.MACRO __MOVEWRR
                 	MOV  R@0,R@2
                 	MOV  R@1,R@3
                 	.ENDM
                 
                 	.MACRO __INWR
                 	IN   R@0,@2
                 	IN   R@1,@2+1
                 	.ENDM
                 
                 	.MACRO __OUTWR
                 	OUT  @2+1,R@1
                 	OUT  @2,R@0
                 	.ENDM
                 
                 	.MACRO __CALL1MN
                 	LDS  R30,@0+(@1)
                 	LDS  R31,@0+(@1)+1
                 	ICALL
                 	.ENDM
                 
                 	.MACRO __CALL1FN
                 	LDI  R30,LOW(2*@0+(@1))
                 	LDI  R31,HIGH(2*@0+(@1))
                 	CALL __GETW1PF
                 	ICALL
                 	.ENDM
                 
                 	.MACRO __CALL2EN
                 	PUSH R26
                 	PUSH R27
                 	LDI  R26,LOW(@0+(@1))
                 	LDI  R27,HIGH(@0+(@1))
                 	CALL __EEPROMRDW
                 	POP  R27
                 	POP  R26
                 	ICALL
                 	.ENDM
                 
                 	.MACRO __CALL2EX
                 	SUBI R26,LOW(-@0)
                 	SBCI R27,HIGH(-@0)
                 	CALL __EEPROMRDD
                 	ICALL
                 	.ENDM
                 
                 	.MACRO __GETW1STACK
                 	IN   R30,SPL
                 	IN   R31,SPH
                 	ADIW R30,@0+1
                 	LD   R0,Z+
                 	LD   R31,Z
                 	MOV  R30,R0
                 	.ENDM
                 
                 	.MACRO __GETD1STACK
                 	IN   R30,SPL
                 	IN   R31,SPH
                 	ADIW R30,@0+1
                 	LD   R0,Z+
                 	LD   R1,Z+
                 	LD   R22,Z
                 	MOVW R30,R0
                 	.ENDM
                 
                 	.MACRO __NBST
                 	BST  R@0,@1
                 	IN   R30,SREG
                 	LDI  R31,0x40
                 	EOR  R30,R31
                 	OUT  SREG,R30
                 	.ENDM
                 
                 
                 	.MACRO __PUTB1SN
                 	LDD  R26,Y+@0
                 	LDD  R27,Y+@0+1
                 	SUBI R26,LOW(-@1)
                 	SBCI R27,HIGH(-@1)
                 	ST   X,R30
                 	.ENDM
                 
                 	.MACRO __PUTW1SN
                 	LDD  R26,Y+@0
                 	LDD  R27,Y+@0+1
                 	SUBI R26,LOW(-@1)
                 	SBCI R27,HIGH(-@1)
                 	ST   X+,R30
                 	ST   X,R31
                 	.ENDM
                 
                 	.MACRO __PUTD1SN
                 	LDD  R26,Y+@0
                 	LDD  R27,Y+@0+1
                 	SUBI R26,LOW(-@1)
                 	SBCI R27,HIGH(-@1)
                 	CALL __PUTDP1
                 	.ENDM
                 
                 	.MACRO __PUTB1SNS
                 	LDD  R26,Y+@0
                 	LDD  R27,Y+@0+1
                 	ADIW R26,@1
                 	ST   X,R30
                 	.ENDM
                 
                 	.MACRO __PUTW1SNS
                 	LDD  R26,Y+@0
                 	LDD  R27,Y+@0+1
                 	ADIW R26,@1
                 	ST   X+,R30
                 	ST   X,R31
                 	.ENDM
                 
                 	.MACRO __PUTD1SNS
                 	LDD  R26,Y+@0
                 	LDD  R27,Y+@0+1
                 	ADIW R26,@1
                 	CALL __PUTDP1
                 	.ENDM
                 
                 	.MACRO __PUTB1PMN
                 	LDS  R26,@0
                 	LDS  R27,@0+1
                 	SUBI R26,LOW(-@1)
                 	SBCI R27,HIGH(-@1)
                 	ST   X,R30
                 	.ENDM
                 
                 	.MACRO __PUTW1PMN
                 	LDS  R26,@0
                 	LDS  R27,@0+1
                 	SUBI R26,LOW(-@1)
                 	SBCI R27,HIGH(-@1)
                 	ST   X+,R30
                 	ST   X,R31
                 	.ENDM
                 
                 	.MACRO __PUTD1PMN
                 	LDS  R26,@0
                 	LDS  R27,@0+1
                 	SUBI R26,LOW(-@1)
                 	SBCI R27,HIGH(-@1)
                 	CALL __PUTDP1
                 	.ENDM
                 
                 	.MACRO __PUTB1PMNS
                 	LDS  R26,@0
                 	LDS  R27,@0+1
                 	ADIW R26,@1
                 	ST   X,R30
                 	.ENDM
                 
                 	.MACRO __PUTW1PMNS
                 	LDS  R26,@0
                 	LDS  R27,@0+1
                 	ADIW R26,@1
                 	ST   X+,R30
                 	ST   X,R31
                 	.ENDM
                 
                 	.MACRO __PUTD1PMNS
                 	LDS  R26,@0
                 	LDS  R27,@0+1
                 	ADIW R26,@1
                 	CALL __PUTDP1
                 	.ENDM
                 
                 	.MACRO __PUTB1RN
                 	MOVW R26,R@0
                 	SUBI R26,LOW(-@1)
                 	SBCI R27,HIGH(-@1)
                 	ST   X,R30
                 	.ENDM
                 
                 	.MACRO __PUTW1RN
                 	MOVW R26,R@0
                 	SUBI R26,LOW(-@1)
                 	SBCI R27,HIGH(-@1)
                 	ST   X+,R30
                 	ST   X,R31
                 	.ENDM
                 
                 	.MACRO __PUTD1RN
                 	MOVW R26,R@0
                 	SUBI R26,LOW(-@1)
                 	SBCI R27,HIGH(-@1)
                 	CALL __PUTDP1
                 	.ENDM
                 
                 	.MACRO __PUTB1RNS
                 	MOVW R26,R@0
                 	ADIW R26,@1
                 	ST   X,R30
                 	.ENDM
                 
                 	.MACRO __PUTW1RNS
                 	MOVW R26,R@0
                 	ADIW R26,@1
                 	ST   X+,R30
                 	ST   X,R31
                 	.ENDM
                 
                 	.MACRO __PUTD1RNS
                 	MOVW R26,R@0
                 	ADIW R26,@1
                 	CALL __PUTDP1
                 	.ENDM
                 
                 	.MACRO __PUTB1RON
                 	MOV  R26,R@0
                 	MOV  R27,R@1
                 	SUBI R26,LOW(-@2)
                 	SBCI R27,HIGH(-@2)
                 	ST   X,R30
                 	.ENDM
                 
                 	.MACRO __PUTW1RON
                 	MOV  R26,R@0
                 	MOV  R27,R@1
                 	SUBI R26,LOW(-@2)
                 	SBCI R27,HIGH(-@2)
                 	ST   X+,R30
                 	ST   X,R31
                 	.ENDM
                 
                 	.MACRO __PUTD1RON
                 	MOV  R26,R@0
                 	MOV  R27,R@1
                 	SUBI R26,LOW(-@2)
                 	SBCI R27,HIGH(-@2)
                 	CALL __PUTDP1
                 	.ENDM
                 
                 	.MACRO __PUTB1RONS
                 	MOV  R26,R@0
                 	MOV  R27,R@1
                 	ADIW R26,@2
                 	ST   X,R30
                 	.ENDM
                 
                 	.MACRO __PUTW1RONS
                 	MOV  R26,R@0
                 	MOV  R27,R@1
                 	ADIW R26,@2
                 	ST   X+,R30
                 	ST   X,R31
                 	.ENDM
                 
                 	.MACRO __PUTD1RONS
                 	MOV  R26,R@0
                 	MOV  R27,R@1
                 	ADIW R26,@2
                 	CALL __PUTDP1
                 	.ENDM
                 
                 
                 	.MACRO __GETB1SX
                 	MOVW R30,R28
                 	SUBI R30,LOW(-@0)
                 	SBCI R31,HIGH(-@0)
                 	LD   R30,Z
                 	.ENDM
                 
                 	.MACRO __GETB1HSX
                 	MOVW R30,R28
                 	SUBI R30,LOW(-@0)
                 	SBCI R31,HIGH(-@0)
                 	LD   R31,Z
                 	.ENDM
                 
                 	.MACRO __GETW1SX
                 	MOVW R30,R28
                 	SUBI R30,LOW(-@0)
                 	SBCI R31,HIGH(-@0)
                 	LD   R0,Z+
                 	LD   R31,Z
                 	MOV  R30,R0
                 	.ENDM
                 
                 	.MACRO __GETD1SX
                 	MOVW R30,R28
                 	SUBI R30,LOW(-@0)
                 	SBCI R31,HIGH(-@0)
                 	LD   R0,Z+
                 	LD   R1,Z+
                 	LD   R22,Z+
                 	LD   R23,Z
                 	MOVW R30,R0
                 	.ENDM
                 
                 	.MACRO __GETB2SX
                 	MOVW R26,R28
                 	SUBI R26,LOW(-@0)
                 	SBCI R27,HIGH(-@0)
                 	LD   R26,X
                 	.ENDM
                 
                 	.MACRO __GETW2SX
                 	MOVW R26,R28
                 	SUBI R26,LOW(-@0)
                 	SBCI R27,HIGH(-@0)
                 	LD   R0,X+
                 	LD   R27,X
                 	MOV  R26,R0
                 	.ENDM
                 
                 	.MACRO __GETD2SX
                 	MOVW R26,R28
                 	SUBI R26,LOW(-@0)
                 	SBCI R27,HIGH(-@0)
                 	LD   R0,X+
                 	LD   R1,X+
                 	LD   R24,X+
                 	LD   R25,X
                 	MOVW R26,R0
                 	.ENDM
                 
                 	.MACRO __GETBRSX
                 	MOVW R30,R28
                 	SUBI R30,LOW(-@1)
                 	SBCI R31,HIGH(-@1)
                 	LD   R@0,Z
                 	.ENDM
                 
                 	.MACRO __GETWRSX
                 	MOVW R30,R28
                 	SUBI R30,LOW(-@2)
                 	SBCI R31,HIGH(-@2)
                 	LD   R@0,Z+
                 	LD   R@1,Z
                 	.ENDM
                 
                 	.MACRO __GETBRSX2
                 	MOVW R26,R28
                 	SUBI R26,LOW(-@1)
                 	SBCI R27,HIGH(-@1)
                 	LD   R@0,X
                 	.ENDM
                 
                 	.MACRO __GETWRSX2
                 	MOVW R26,R28
                 	SUBI R26,LOW(-@2)
                 	SBCI R27,HIGH(-@2)
                 	LD   R@0,X+
                 	LD   R@1,X
                 	.ENDM
                 
                 	.MACRO __LSLW8SX
                 	MOVW R30,R28
                 	SUBI R30,LOW(-@0)
                 	SBCI R31,HIGH(-@0)
                 	LD   R31,Z
                 	CLR  R30
                 	.ENDM
                 
                 	.MACRO __PUTB1SX
                 	MOVW R26,R28
                 	SUBI R26,LOW(-@0)
                 	SBCI R27,HIGH(-@0)
                 	ST   X,R30
                 	.ENDM
                 
                 	.MACRO __PUTW1SX
                 	MOVW R26,R28
                 	SUBI R26,LOW(-@0)
                 	SBCI R27,HIGH(-@0)
                 	ST   X+,R30
                 	ST   X,R31
                 	.ENDM
                 
                 	.MACRO __PUTD1SX
                 	MOVW R26,R28
                 	SUBI R26,LOW(-@0)
                 	SBCI R27,HIGH(-@0)
                 	ST   X+,R30
                 	ST   X+,R31
                 	ST   X+,R22
                 	ST   X,R23
                 	.ENDM
                 
                 	.MACRO __CLRW1SX
                 	MOVW R26,R28
                 	SUBI R26,LOW(-@0)
                 	SBCI R27,HIGH(-@0)
                 	ST   X+,R30
                 	ST   X,R30
                 	.ENDM
                 
                 	.MACRO __CLRD1SX
                 	MOVW R26,R28
                 	SUBI R26,LOW(-@0)
                 	SBCI R27,HIGH(-@0)
                 	ST   X+,R30
                 	ST   X+,R30
                 	ST   X+,R30
                 	ST   X,R30
                 	.ENDM
                 
                 	.MACRO __PUTB2SX
                 	MOVW R30,R28
                 	SUBI R30,LOW(-@0)
                 	SBCI R31,HIGH(-@0)
                 	ST   Z,R26
                 	.ENDM
                 
                 	.MACRO __PUTW2SX
                 	MOVW R30,R28
                 	SUBI R30,LOW(-@0)
                 	SBCI R31,HIGH(-@0)
                 	ST   Z+,R26
                 	ST   Z,R27
                 	.ENDM
                 
                 	.MACRO __PUTD2SX
                 	MOVW R30,R28
                 	SUBI R30,LOW(-@0)
                 	SBCI R31,HIGH(-@0)
                 	ST   Z+,R26
                 	ST   Z+,R27
                 	ST   Z+,R24
                 	ST   Z,R25
                 	.ENDM
                 
                 	.MACRO __PUTBSRX
                 	MOVW R30,R28
                 	SUBI R30,LOW(-@1)
                 	SBCI R31,HIGH(-@1)
                 	ST   Z,R@0
                 	.ENDM
                 
                 	.MACRO __PUTWSRX
                 	MOVW R30,R28
                 	SUBI R30,LOW(-@2)
                 	SBCI R31,HIGH(-@2)
                 	ST   Z+,R@0
                 	ST   Z,R@1
                 	.ENDM
                 
                 	.MACRO __PUTB1SNX
                 	MOVW R26,R28
                 	SUBI R26,LOW(-@0)
                 	SBCI R27,HIGH(-@0)
                 	LD   R0,X+
                 	LD   R27,X
                 	MOV  R26,R0
                 	SUBI R26,LOW(-@1)
                 	SBCI R27,HIGH(-@1)
                 	ST   X,R30
                 	.ENDM
                 
                 	.MACRO __PUTW1SNX
                 	MOVW R26,R28
                 	SUBI R26,LOW(-@0)
                 	SBCI R27,HIGH(-@0)
                 	LD   R0,X+
                 	LD   R27,X
                 	MOV  R26,R0
                 	SUBI R26,LOW(-@1)
                 	SBCI R27,HIGH(-@1)
                 	ST   X+,R30
                 	ST   X,R31
                 	.ENDM
                 
                 	.MACRO __PUTD1SNX
                 	MOVW R26,R28
                 	SUBI R26,LOW(-@0)
                 	SBCI R27,HIGH(-@0)
                 	LD   R0,X+
                 	LD   R27,X
                 	MOV  R26,R0
                 	SUBI R26,LOW(-@1)
                 	SBCI R27,HIGH(-@1)
                 	ST   X+,R30
                 	ST   X+,R31
                 	ST   X+,R22
                 	ST   X,R23
                 	.ENDM
                 
                 	.MACRO __MULBRR
                 	MULS R@0,R@1
                 	MOVW R30,R0
                 	.ENDM
                 
                 	.MACRO __MULBRRU
                 	MUL  R@0,R@1
                 	MOVW R30,R0
                 	.ENDM
                 
                 	.MACRO __MULBRR0
                 	MULS R@0,R@1
                 	.ENDM
                 
                 	.MACRO __MULBRRU0
                 	MUL  R@0,R@1
                 	.ENDM
                 
                 	.MACRO __MULBNWRU
                 	LDI  R26,@2
                 	MUL  R26,R@0
                 	MOVW R30,R0
                 	MUL  R26,R@1
                 	ADD  R31,R0
                 	.ENDM
                 
                 ;NAME DEFINITIONS FOR GLOBAL VARIABLES ALLOCATED TO REGISTERS
                 	.DEF __lcd_x=R5
                 	.DEF __lcd_y=R4
                 	.DEF __lcd_maxx=R7
                 
                 	.CSEG
                 	.ORG 0x00
                 
                 ;START OF CODE MARKER
                 __START_OF_CODE:
                 
                 ;INTERRUPT VECTORS
000000 940c 00bc 	JMP  __RESET
000002 940c 00e9 	JMP  _ext_int0_isr
000004 940c 0105 	JMP  _ext_int1_isr
000006 940c 0000 	JMP  0x00
000008 940c 0000 	JMP  0x00
00000a 940c 0000 	JMP  0x00
00000c 940c 0000 	JMP  0x00
00000e 940c 0000 	JMP  0x00
000010 940c 0000 	JMP  0x00
000012 940c 0000 	JMP  0x00
000014 940c 0000 	JMP  0x00
000016 940c 0000 	JMP  0x00
000018 940c 0000 	JMP  0x00
00001a 940c 0000 	JMP  0x00
00001c 940c 0000 	JMP  0x00
00001e 940c 0000 	JMP  0x00
000020 940c 0000 	JMP  0x00
000022 940c 0000 	JMP  0x00
000024 940c 0000 	JMP  0x00
000026 940c 0000 	JMP  0x00
000028 940c 0000 	JMP  0x00
                 
                 _tbl10_G102:
00002a 2710
00002b 03e8
00002c 0064
00002d 000a      	.DB  0x10,0x27,0xE8,0x3,0x64,0x0,0xA,0x0
00002e 0001      	.DB  0x1,0x0
                 _tbl16_G102:
00002f 1000
000030 0100
000031 0010
000032 0001      	.DB  0x0,0x10,0x0,0x1,0x10,0x0,0x1,0x0
                 
                 _0x3:
000033 6150
000034 7373
000035 6f57
000036 6472      	.DB  0x50,0x61,0x73,0x73,0x57,0x6F,0x72,0x64
                 _0x0:
000037 6557
000038 636c
000039 6d6f
00003a 0065      	.DB  0x57,0x65,0x6C,0x63,0x6F,0x6D,0x65,0x0
00003b 6c50
00003c 6361
00003d 2065
00003e 6f79      	.DB  0x50,0x6C,0x61,0x63,0x65,0x20,0x79,0x6F
00003f 7275
000040 6320
000041 7261
000042 0064      	.DB  0x75,0x72,0x20,0x63,0x61,0x72,0x64,0x0
000043 2020
000044 0020
000045 202e
000046 0020      	.DB  0x20,0x20,0x20,0x0,0x2E,0x20,0x20,0x0
000047 2e2e
000048 0020
000049 2e2e
00004a 002e      	.DB  0x2E,0x2E,0x20,0x0,0x2E,0x2E,0x2E,0x0
00004b 7245
00004c 6f72
00004d 3a72
00004e 4e00      	.DB  0x45,0x72,0x72,0x6F,0x72,0x3A,0x0,0x4E
00004f 206f
000050 6143
000051 6472
000052 5400      	.DB  0x6F,0x20,0x43,0x61,0x72,0x64,0x0,0x54
000053 6d69
000054 6f65
000055 7475
000056 4300      	.DB  0x69,0x6D,0x65,0x6F,0x75,0x74,0x0,0x43
000057 6d6f
000058 206d
000059 7245
00005a 6f72      	.DB  0x6F,0x6D,0x6D,0x20,0x45,0x72,0x72,0x6F
00005b 0072
00005c 7541
00005d 6874
00005e 4520      	.DB  0x72,0x0,0x41,0x75,0x74,0x68,0x20,0x45
00005f 7272
000060 726f
000061 5500
000062 6b6e      	.DB  0x72,0x72,0x6F,0x72,0x0,0x55,0x6E,0x6B
000063 6f6e
000064 6e77
000065 4520
000066 7272      	.DB  0x6E,0x6F,0x77,0x6E,0x20,0x45,0x72,0x72
000067 4400
000068 7461
000069 2061
00006a 6f66      	.DB  0x0,0x44,0x61,0x74,0x61,0x20,0x66,0x6F
00006b 6e75
00006c 0064
00006d 523e
00006e 6165      	.DB  0x75,0x6E,0x64,0x0,0x3E,0x52,0x65,0x61
00006f 2064
000070 2026
000071 6863
000072 6365      	.DB  0x64,0x20,0x26,0x20,0x63,0x68,0x65,0x63
000073 006b
000074 573e
000075 6972
000076 6574      	.DB  0x6B,0x0,0x3E,0x57,0x72,0x69,0x74,0x65
000077 7020
000078 7361
000079 7773
00007a 726f      	.DB  0x20,0x70,0x61,0x73,0x73,0x77,0x6F,0x72
00007b 0064
00007c 6d45
00007d 7470
00007e 2079      	.DB  0x64,0x0,0x45,0x6D,0x70,0x74,0x79,0x20
00007f 6c62
000080 636f
000081 006b
000082 443e      	.DB  0x62,0x6C,0x6F,0x63,0x6B,0x0,0x3E,0x44
000083 206f
000084 6f6e
000085 6874
000086 6e69      	.DB  0x6F,0x20,0x6E,0x6F,0x74,0x68,0x69,0x6E
000087 0067
000088 7257
000089 7469
00008a 2065      	.DB  0x67,0x0,0x57,0x72,0x69,0x74,0x65,0x20
00008b 4b4f
00008c 4d00
00008d 7461
00008e 6863      	.DB  0x4F,0x4B,0x0,0x4D,0x61,0x74,0x63,0x68
00008f 5000
000090 7361
000091 7773
000092 726f      	.DB  0x0,0x50,0x61,0x73,0x73,0x77,0x6F,0x72
000093 2064
000094 4b4f
000095 4100
000096 6363      	.DB  0x64,0x20,0x4F,0x4B,0x0,0x41,0x63,0x63
000097 7365
000098 2073
000099 7267
00009a 6e61      	.DB  0x65,0x73,0x73,0x20,0x67,0x72,0x61,0x6E
00009b 6574
00009c 0064
00009d 6150
00009e 7373      	.DB  0x74,0x65,0x64,0x0,0x50,0x61,0x73,0x73
00009f 6f77
0000a0 6472
0000a1 4e20
0000a2 0047      	.DB  0x77,0x6F,0x72,0x64,0x20,0x4E,0x47,0x0
0000a3 7254
0000a4 2079
0000a5 6761
0000a6 6961      	.DB  0x54,0x72,0x79,0x20,0x61,0x67,0x61,0x69
0000a7 006e
0000a8 7257
0000a9 7469
0000aa 2065      	.DB  0x6E,0x0,0x57,0x72,0x69,0x74,0x65,0x20
0000ab 6f64
0000ac 656e
I:\EmC-Proj\MFRC522-PH1\Debug\List\main.asm(1159): warning: .cseg .db misalignment - padding zero byte
0000ad 0000      	.DB  0x64,0x6F,0x6E,0x65,0x0
                 _0x20003:
0000ae ffff
0000af ffff
0000b0 ffff      	.DB  0xFF,0xFF,0xFF,0xFF,0xFF,0xFF
                 _0x2000003:
0000b1 c080      	.DB  0x80,0xC0
                 
                 __GLOBAL_INI_TBL:
0000b2 0008      	.DW  0x08
0000b3 0260      	.DW  _password_G000
0000b4 0066      	.DW  _0x3*2
                 
0000b5 0006      	.DW  0x06
0000b6 0271      	.DW  _keyA_G001
0000b7 015c      	.DW  _0x20003*2
                 
0000b8 0002      	.DW  0x02
0000b9 0277      	.DW  __base_y_G100
0000ba 0162      	.DW  _0x2000003*2
                 
                 _0xFFFFFFFF:
0000bb 0000      	.DW  0
                 
                 #define __GLOBAL_INI_TBL_PRESENT 1
                 
                 __RESET:
0000bc 94f8      	CLI
0000bd 27ee      	CLR  R30
0000be bbec      	OUT  EECR,R30
                 
                 ;INTERRUPT VECTORS ARE PLACED
                 ;AT THE START OF FLASH
0000bf e0f1      	LDI  R31,1
0000c0 bffb      	OUT  GICR,R31
0000c1 bfeb      	OUT  GICR,R30
0000c2 bfe5      	OUT  MCUCR,R30
                 
                 ;CLEAR R2-R14
0000c3 e08d      	LDI  R24,(14-2)+1
0000c4 e0a2      	LDI  R26,2
0000c5 27bb      	CLR  R27
                 __CLEAR_REG:
0000c6 93ed      	ST   X+,R30
0000c7 958a      	DEC  R24
0000c8 f7e9      	BRNE __CLEAR_REG
                 
                 ;CLEAR SRAM
0000c9 e080      	LDI  R24,LOW(__CLEAR_SRAM_SIZE)
0000ca e098      	LDI  R25,HIGH(__CLEAR_SRAM_SIZE)
0000cb e6a0      	LDI  R26,__SRAM_START
                 __CLEAR_SRAM:
0000cc 93ed      	ST   X+,R30
0000cd 9701      	SBIW R24,1
0000ce f7e9      	BRNE __CLEAR_SRAM
                 
                 ;GLOBAL VARIABLES INITIALIZATION
0000cf e6e4      	LDI  R30,LOW(__GLOBAL_INI_TBL*2)
0000d0 e0f1      	LDI  R31,HIGH(__GLOBAL_INI_TBL*2)
                 __GLOBAL_INI_NEXT:
0000d1 9185      	LPM  R24,Z+
0000d2 9195      	LPM  R25,Z+
0000d3 9700      	SBIW R24,0
0000d4 f061      	BREQ __GLOBAL_INI_END
0000d5 91a5      	LPM  R26,Z+
0000d6 91b5      	LPM  R27,Z+
0000d7 9005      	LPM  R0,Z+
0000d8 9015      	LPM  R1,Z+
0000d9 01bf      	MOVW R22,R30
0000da 01f0      	MOVW R30,R0
                 __GLOBAL_INI_LOOP:
0000db 9005      	LPM  R0,Z+
0000dc 920d      	ST   X+,R0
0000dd 9701      	SBIW R24,1
0000de f7e1      	BRNE __GLOBAL_INI_LOOP
0000df 01fb      	MOVW R30,R22
0000e0 cff0      	RJMP __GLOBAL_INI_NEXT
                 __GLOBAL_INI_END:
                 
                 ;HARDWARE STACK POINTER INITIALIZATION
0000e1 e5ef      	LDI  R30,LOW(__SRAM_END-__HEAP_SIZE)
0000e2 bfed      	OUT  SPL,R30
0000e3 e0e8      	LDI  R30,HIGH(__SRAM_END-__HEAP_SIZE)
0000e4 bfee      	OUT  SPH,R30
                 
                 ;DATA STACK POINTER INITIALIZATION
0000e5 e6c0      	LDI  R28,LOW(__SRAM_START+__DSTACK_SIZE)
0000e6 e0d2      	LDI  R29,HIGH(__SRAM_START+__DSTACK_SIZE)
                 
0000e7 940c 01e0 	JMP  _main
                 
                 	.ESEG
                 	.ORG 0
                 
                 	.DSEG
                 	.ORG 0x260
                 
                 	.CSEG
                 ;#include <mega32.h>
                 	#ifndef __SLEEP_DEFINED__
                 	#define __SLEEP_DEFINED__
                 	.EQU __se_bit=0x80
                 	.EQU __sm_mask=0x70
                 	.EQU __sm_powerdown=0x20
                 	.EQU __sm_powersave=0x30
                 	.EQU __sm_standby=0x60
                 	.EQU __sm_ext_standby=0x70
                 	.EQU __sm_adc_noise_red=0x10
                 	.SET power_ctrl_reg=mcucr
                 	#endif
                 ;#include <alcd.h>
                 ;#include <string.h>
                 ;#include <stdio.h>
                 ;#include <spi.h>
                 ;#include <delay.h>
                 ;#include "rfid.h"
                 ;
                 ;/* Buzzer / LEDs */
                 ;#define BUZZER_PORT PORTD
                 ;#define BUZZER_PIN  5
                 ;#define GREEN_LED_PORT PORTD
                 ;#define GREEN_LED_PIN 6
                 ;#define RED_LED_PORT PORTB
                 ;#define RED_LED_PIN 1
                 ;
                 ;/* UI state */
                 ;static unsigned char password[] = "PassWord";
                 
                 	.DSEG
                 ;static volatile int menu_list = 0;
                 ;static volatile int write_menu = 0;
                 ;static volatile char read_selected = 0;
                 ;static volatile char write_selected = 0;
                 ;static volatile int screen = 0;         // 0=welcome,1=hasData,2=empty
                 ;
                 ;/* INT0: next */
                 ;interrupt [EXT_INT0] void ext_int0_isr(void){
                 ; 0000 001A interrupt [2] void ext_int0_isr(void){
                 
                 	.CSEG
                 _ext_int0_isr:
                 ; .FSTART _ext_int0_isr
0000e9 940e 0726 	CALL SUBOPT_0x0
                 ; 0000 001B     if(screen==1){ menu_list = (menu_list+1)&1; }
0000eb f451      	BRNE _0x4
0000ec 940e 0732 	CALL SUBOPT_0x1
0000ee 9631      	ADIW R30,1
0000ef 70e1      	ANDI R30,LOW(0x1)
0000f0 70f0      	ANDI R31,HIGH(0x1)
0000f1 93e0 0269 	STS  _menu_list_G000,R30
0000f3 93f0 026a 	STS  _menu_list_G000+1,R31
                 ; 0000 001C     else if(screen==2){ write_menu = (write_menu+1)&1; }
0000f5 c00e      	RJMP _0x5
                 _0x4:
0000f6 940e 0737 	CALL SUBOPT_0x2
0000f8 f459      	BRNE _0x6
0000f9 91e0 026b 	LDS  R30,_write_menu_G000
0000fb 91f0 026c 	LDS  R31,_write_menu_G000+1
0000fd 9631      	ADIW R30,1
0000fe 70e1      	ANDI R30,LOW(0x1)
0000ff 70f0      	ANDI R31,HIGH(0x1)
000100 93e0 026b 	STS  _write_menu_G000,R30
000102 93f0 026c 	STS  _write_menu_G000+1,R31
                 ; 0000 001D }
                 _0x6:
                 _0x5:
000104 c021      	RJMP _0x5A
                 ; .FEND
                 ;/* INT1: select */
                 ;interrupt [EXT_INT1] void ext_int1_isr(void){
                 ; 0000 001F interrupt [3] void ext_int1_isr(void){
                 _ext_int1_isr:
                 ; .FSTART _ext_int1_isr
000105 940e 0726 	CALL SUBOPT_0x0
                 ; 0000 0020     if(screen==1){ /* has data */
000107 f461      	BRNE _0x7
                 ; 0000 0021         if(menu_list==0) read_selected=1;
000108 940e 0732 	CALL SUBOPT_0x1
00010a 9730      	SBIW R30,0
00010b f421      	BRNE _0x8
00010c e0e1      	LDI  R30,LOW(1)
00010d 93e0 026d 	STS  _read_selected_G000,R30
                 ; 0000 0022         else write_selected=1;
00010f c003      	RJMP _0x9
                 _0x8:
000110 e0e1      	LDI  R30,LOW(1)
000111 93e0 026e 	STS  _write_selected_G000,R30
                 ; 0000 0023     }else if(screen==2){ /* empty */
                 _0x9:
000113 c012      	RJMP _0xA
                 _0x7:
000114 940e 0737 	CALL SUBOPT_0x2
000116 f479      	BRNE _0xB
                 ; 0000 0024         if(write_menu==1) write_selected=1; /* confirm write */
000117 91a0 026b 	LDS  R26,_write_menu_G000
000119 91b0 026c 	LDS  R27,_write_menu_G000+1
00011b 9711      	SBIW R26,1
00011c f421      	BRNE _0xC
00011d e0e1      	LDI  R30,LOW(1)
00011e 93e0 026e 	STS  _write_selected_G000,R30
                 ; 0000 0025         else { /* do nothing */ screen=0; }
000120 c005      	RJMP _0xD
                 _0xC:
000121 e0e0      	LDI  R30,LOW(0)
000122 93e0 026f 	STS  _screen_G000,R30
000124 93e0 0270 	STS  _screen_G000+1,R30
                 _0xD:
                 ; 0000 0026     }
                 ; 0000 0027 }
                 _0xB:
                 _0xA:
                 _0x5A:
000126 91e9      	LD   R30,Y+
000127 bfef      	OUT  SREG,R30
000128 91f9      	LD   R31,Y+
000129 91e9      	LD   R30,Y+
00012a 91b9      	LD   R27,Y+
00012b 91a9      	LD   R26,Y+
00012c 9518      	RETI
                 ; .FEND
                 ;
                 ;/* LCD (=16 chars) */
                 ;static void lcd_welcome_init(void){
                 ; 0000 002A static void lcd_welcome_init(void){
                 _lcd_welcome_init_G000:
                 ; .FSTART _lcd_welcome_init_G000
                 ; 0000 002B     lcd_clear();
00012d 940e 073d 	CALL SUBOPT_0x3
                 ; 0000 002C     lcd_gotoxy(0,0); lcd_putsf("Welcome");
                +
00012f e6ae     +LDI R26 , LOW ( 2 * _0x0 + ( 0 ) )
000130 e0b0     +LDI R27 , HIGH ( 2 * _0x0 + ( 0 ) )
                 	__POINTW2FN _0x0,0
000131 940e 0744 	CALL SUBOPT_0x4
                 ; 0000 002D     lcd_gotoxy(0,1); lcd_putsf("Place your card");
                +
000133 e7a6     +LDI R26 , LOW ( 2 * _0x0 + ( 8 ) )
000134 e0b0     +LDI R27 , HIGH ( 2 * _0x0 + ( 8 ) )
                 	__POINTW2FN _0x0,8
000135 940e 06ab 	CALL _lcd_putsf
                 ; 0000 002E }
000137 9508      	RET
                 ; .FEND
                 ;static void lcd_welcome_anim(unsigned char step){
                 ; 0000 002F static void lcd_welcome_anim(unsigned char step){
                 _lcd_welcome_anim_G000:
                 ; .FSTART _lcd_welcome_anim_G000
                 ; 0000 0030     unsigned char d = step % 4;
                 ; 0000 0031     lcd_gotoxy(13,1);
000138 93aa      	ST   -Y,R26
000139 931a      	ST   -Y,R17
                 ;	step -> Y+1
                 ;	d -> R17
00013a 81e9      	LDD  R30,Y+1
00013b e0f0      	LDI  R31,0
00013c e0a3      	LDI  R26,LOW(3)
00013d e0b0      	LDI  R27,HIGH(3)
00013e 940e 080f 	CALL __MANDW12
000140 2f1e      	MOV  R17,R30
000141 e0ed      	LDI  R30,LOW(13)
000142 93ea      	ST   -Y,R30
000143 e0a1      	LDI  R26,LOW(1)
000144 940e 067b 	CALL _lcd_gotoxy
                 ; 0000 0032     if(d==0)      lcd_putsf("   ");
000146 3010      	CPI  R17,0
000147 f419      	BRNE _0xE
                +
000148 e8a6     +LDI R26 , LOW ( 2 * _0x0 + ( 24 ) )
000149 e0b0     +LDI R27 , HIGH ( 2 * _0x0 + ( 24 ) )
                 	__POINTW2FN _0x0,24
00014a c00c      	RJMP _0x55
                 ; 0000 0033     else if(d==1) lcd_putsf(".  ");
                 _0xE:
00014b 3011      	CPI  R17,1
00014c f419      	BRNE _0x10
                +
00014d e8aa     +LDI R26 , LOW ( 2 * _0x0 + ( 28 ) )
00014e e0b0     +LDI R27 , HIGH ( 2 * _0x0 + ( 28 ) )
                 	__POINTW2FN _0x0,28
00014f c007      	RJMP _0x55
                 ; 0000 0034     else if(d==2) lcd_putsf(".. ");
                 _0x10:
000150 3012      	CPI  R17,2
000151 f419      	BRNE _0x12
                +
000152 e8ae     +LDI R26 , LOW ( 2 * _0x0 + ( 32 ) )
000153 e0b0     +LDI R27 , HIGH ( 2 * _0x0 + ( 32 ) )
                 	__POINTW2FN _0x0,32
000154 c002      	RJMP _0x55
                 ; 0000 0035     else          lcd_putsf("...");
                 _0x12:
                +
000155 e9a2     +LDI R26 , LOW ( 2 * _0x0 + ( 36 ) )
000156 e0b0     +LDI R27 , HIGH ( 2 * _0x0 + ( 36 ) )
                 	__POINTW2FN _0x0,36
                 _0x55:
000157 940e 06ab 	CALL _lcd_putsf
                 ; 0000 0036 }
000159 8118      	LDD  R17,Y+0
00015a 940c 0686 	JMP  _0x20A0002
                 ; .FEND
                 ;static void show_error(char e){
                 ; 0000 0037 static void show_error(char e){
                 _show_error_G000:
                 ; .FSTART _show_error_G000
                 ; 0000 0038     lcd_clear(); lcd_gotoxy(0,0); lcd_putsf("Error:");
00015c 93aa      	ST   -Y,R26
                 ;	e -> Y+0
00015d 940e 073d 	CALL SUBOPT_0x3
                +
00015f e9a6     +LDI R26 , LOW ( 2 * _0x0 + ( 40 ) )
000160 e0b0     +LDI R27 , HIGH ( 2 * _0x0 + ( 40 ) )
                 	__POINTW2FN _0x0,40
000161 940e 0744 	CALL SUBOPT_0x4
                 ; 0000 0039     lcd_gotoxy(0,1);
                 ; 0000 003A     if(e==MI_NOTAGERR)      lcd_putsf("No Card");
000163 81a8      	LD   R26,Y
000164 30a1      	CPI  R26,LOW(0x1)
000165 f419      	BRNE _0x14
                +
000166 e9ad     +LDI R26 , LOW ( 2 * _0x0 + ( 47 ) )
000167 e0b0     +LDI R27 , HIGH ( 2 * _0x0 + ( 47 ) )
                 	__POINTW2FN _0x0,47
000168 c014      	RJMP _0x56
                 ; 0000 003B     else if(e==MI_TIMEOUT)  lcd_putsf("Timeout");
                 _0x14:
000169 81a8      	LD   R26,Y
00016a 30a2      	CPI  R26,LOW(0x2)
00016b f419      	BRNE _0x16
                +
00016c eaa5     +LDI R26 , LOW ( 2 * _0x0 + ( 55 ) )
00016d e0b0     +LDI R27 , HIGH ( 2 * _0x0 + ( 55 ) )
                 	__POINTW2FN _0x0,55
00016e c00e      	RJMP _0x56
                 ; 0000 003C     else if(e==MI_COMM_ERR) lcd_putsf("Comm Error");
                 _0x16:
00016f 81a8      	LD   R26,Y
000170 30a3      	CPI  R26,LOW(0x3)
000171 f419      	BRNE _0x18
                +
000172 eaad     +LDI R26 , LOW ( 2 * _0x0 + ( 63 ) )
000173 e0b0     +LDI R27 , HIGH ( 2 * _0x0 + ( 63 ) )
                 	__POINTW2FN _0x0,63
000174 c008      	RJMP _0x56
                 ; 0000 003D     else if(e==MI_AUTH_ERR) lcd_putsf("Auth Error");
                 _0x18:
000175 81a8      	LD   R26,Y
000176 30a6      	CPI  R26,LOW(0x6)
000177 f419      	BRNE _0x1A
                +
000178 eba8     +LDI R26 , LOW ( 2 * _0x0 + ( 74 ) )
000179 e0b0     +LDI R27 , HIGH ( 2 * _0x0 + ( 74 ) )
                 	__POINTW2FN _0x0,74
00017a c002      	RJMP _0x56
                 ; 0000 003E     else                    lcd_putsf("Unknown Err");
                 _0x1A:
                +
00017b eca3     +LDI R26 , LOW ( 2 * _0x0 + ( 85 ) )
00017c e0b0     +LDI R27 , HIGH ( 2 * _0x0 + ( 85 ) )
                 	__POINTW2FN _0x0,85
                 _0x56:
00017d 940e 06ab 	CALL _lcd_putsf
                 ; 0000 003F }
00017f 9621      	ADIW R28,1
000180 9508      	RET
                 ; .FEND
                 ;
                 ;/* helpers */
                 ;static unsigned char is_all(const unsigned char *p, unsigned char v){
                 ; 0000 0042 static unsigned char is_all(const unsigned char *p, unsigned char v){
                 _is_all_G000:
                 ; .FSTART _is_all_G000
                 ; 0000 0043     unsigned char i; for(i=0;i<16;i++) if(p[i]!=v) return 0; return 1;
000181 93aa      	ST   -Y,R26
000182 931a      	ST   -Y,R17
                 ;	*p -> Y+2
                 ;	v -> Y+1
                 ;	i -> R17
000183 e010      	LDI  R17,LOW(0)
                 _0x1D:
000184 3110      	CPI  R17,16
000185 f450      	BRSH _0x1E
000186 940e 074b 	CALL SUBOPT_0x5
000188 81e9      	LDD  R30,Y+1
000189 17ea      	CP   R30,R26
00018a f019      	BREQ _0x1F
00018b e0e0      	LDI  R30,LOW(0)
00018c 940c 05a5 	JMP  _0x20A0005
                 _0x1F:
00018e 5f1f      	SUBI R17,-1
00018f cff4      	RJMP _0x1D
                 _0x1E:
000190 e0e1      	LDI  R30,LOW(1)
000191 940c 05a5 	JMP  _0x20A0005
                 ; 0000 0044 }
                 ; .FEND
                 ;static unsigned char is_empty16(const unsigned char *p){
                 ; 0000 0045 static unsigned char is_empty16(const unsigned char *p){
                 _is_empty16_G000:
                 ; .FSTART _is_empty16_G000
                 ; 0000 0046     return (is_all(p,0x00) || is_all(p,0xFF));
000193 93ba      	ST   -Y,R27
000194 93aa      	ST   -Y,R26
                 ;	*p -> Y+0
000195 81e8      	LD   R30,Y
000196 81f9      	LDD  R31,Y+1
000197 93fa      	ST   -Y,R31
000198 93ea      	ST   -Y,R30
000199 e0a0      	LDI  R26,LOW(0)
00019a dfe6      	RCALL _is_all_G000
00019b 30e0      	CPI  R30,0
00019c f451      	BRNE _0x20
00019d 81e8      	LD   R30,Y
00019e 81f9      	LDD  R31,Y+1
00019f 93fa      	ST   -Y,R31
0001a0 93ea      	ST   -Y,R30
0001a1 efaf      	LDI  R26,LOW(255)
0001a2 dfde      	RCALL _is_all_G000
0001a3 30e0      	CPI  R30,0
0001a4 f411      	BRNE _0x20
0001a5 e0e0      	LDI  R30,0
0001a6 c001      	RJMP _0x21
                 _0x20:
0001a7 e0e1      	LDI  R30,1
                 _0x21:
0001a8 940c 0686 	JMP  _0x20A0002
                 ; 0000 0047 }
                 ; .FEND
                 ;
                 ;/* Menus */
                 ;static void draw_menu_hasdata(void){
                 ; 0000 004A static void draw_menu_hasdata(void){
                 _draw_menu_hasdata_G000:
                 ; .FSTART _draw_menu_hasdata_G000
                 ; 0000 004B     lcd_clear();
0001aa 940e 0688 	CALL _lcd_clear
                 ; 0000 004C     if(menu_list==0){
0001ac 940e 0732 	CALL SUBOPT_0x1
0001ae 9730      	SBIW R30,0
0001af f449      	BRNE _0x22
                 ; 0000 004D         lcd_gotoxy(0,0); lcd_putsf("Data found");
0001b0 940e 0752 	CALL SUBOPT_0x6
                +
0001b2 ecaf     +LDI R26 , LOW ( 2 * _0x0 + ( 97 ) )
0001b3 e0b0     +LDI R27 , HIGH ( 2 * _0x0 + ( 97 ) )
                 	__POINTW2FN _0x0,97
0001b4 940e 0744 	CALL SUBOPT_0x4
                 ; 0000 004E         lcd_gotoxy(0,1); lcd_putsf(">Read & check");
                +
0001b6 edaa     +LDI R26 , LOW ( 2 * _0x0 + ( 108 ) )
0001b7 e0b0     +LDI R27 , HIGH ( 2 * _0x0 + ( 108 ) )
                 	__POINTW2FN _0x0,108
0001b8 c008      	RJMP _0x57
                 ; 0000 004F     }else{
                 _0x22:
                 ; 0000 0050         lcd_gotoxy(0,0); lcd_putsf("Read & check");
0001b9 940e 0752 	CALL SUBOPT_0x6
                +
0001bb edab     +LDI R26 , LOW ( 2 * _0x0 + ( 109 ) )
0001bc e0b0     +LDI R27 , HIGH ( 2 * _0x0 + ( 109 ) )
                 	__POINTW2FN _0x0,109
0001bd 940e 0744 	CALL SUBOPT_0x4
                 ; 0000 0051         lcd_gotoxy(0,1); lcd_putsf(">Write password");
                +
0001bf eea8     +LDI R26 , LOW ( 2 * _0x0 + ( 122 ) )
0001c0 e0b0     +LDI R27 , HIGH ( 2 * _0x0 + ( 122 ) )
                 	__POINTW2FN _0x0,122
                 _0x57:
0001c1 940e 06ab 	CALL _lcd_putsf
                 ; 0000 0052     }
                 ; 0000 0053 }
0001c3 9508      	RET
                 ; .FEND
                 ;
                 ;static void draw_menu_empty(void){
                 ; 0000 0055 static void draw_menu_empty(void){
                 _draw_menu_empty_G000:
                 ; .FSTART _draw_menu_empty_G000
                 ; 0000 0056     lcd_clear();
0001c4 940e 0688 	CALL _lcd_clear
                 ; 0000 0057     if(write_menu==0){
0001c6 91e0 026b 	LDS  R30,_write_menu_G000
0001c8 91f0 026c 	LDS  R31,_write_menu_G000+1
0001ca 9730      	SBIW R30,0
0001cb f449      	BRNE _0x24
                 ; 0000 0058         lcd_gotoxy(0,0); lcd_putsf("Empty block");
0001cc 940e 0752 	CALL SUBOPT_0x6
                +
0001ce efa8     +LDI R26 , LOW ( 2 * _0x0 + ( 138 ) )
0001cf e0b0     +LDI R27 , HIGH ( 2 * _0x0 + ( 138 ) )
                 	__POINTW2FN _0x0,138
0001d0 940e 0744 	CALL SUBOPT_0x4
                 ; 0000 0059         lcd_gotoxy(0,1); lcd_putsf(">Do nothing");
                +
0001d2 e0a4     +LDI R26 , LOW ( 2 * _0x0 + ( 150 ) )
0001d3 e0b1     +LDI R27 , HIGH ( 2 * _0x0 + ( 150 ) )
                 	__POINTW2FN _0x0,150
0001d4 c008      	RJMP _0x58
                 ; 0000 005A     }else{
                 _0x24:
                 ; 0000 005B         lcd_gotoxy(0,0); lcd_putsf("Do nothing");
0001d5 940e 0752 	CALL SUBOPT_0x6
                +
0001d7 e0a5     +LDI R26 , LOW ( 2 * _0x0 + ( 151 ) )
0001d8 e0b1     +LDI R27 , HIGH ( 2 * _0x0 + ( 151 ) )
                 	__POINTW2FN _0x0,151
0001d9 940e 0744 	CALL SUBOPT_0x4
                 ; 0000 005C         lcd_gotoxy(0,1); lcd_putsf(">Write password");
                +
0001db eea8     +LDI R26 , LOW ( 2 * _0x0 + ( 122 ) )
0001dc e0b0     +LDI R27 , HIGH ( 2 * _0x0 + ( 122 ) )
                 	__POINTW2FN _0x0,122
                 _0x58:
0001dd 940e 06ab 	CALL _lcd_putsf
                 ; 0000 005D     }
                 ; 0000 005E }
0001df 9508      	RET
                 ; .FEND
                 ;
                 ;void main(void){
                 ; 0000 0060 void main(void){
                 _main:
                 ; .FSTART _main
                 ; 0000 0061     // Port A initialization
                 ; 0000 0062     // Function: Bit7=In Bit6=In Bit5=In Bit4=In Bit3=In Bit2=In Bit1=In Bit0=In
                 ; 0000 0063     DDRA=(0<<DDA7) | (0<<DDA6) | (0<<DDA5) | (0<<DDA4) | (0<<DDA3) | (0<<DDA2) | (0<<DDA1) | (0<<DDA0);
0001e0 e0e0      	LDI  R30,LOW(0)
0001e1 bbea      	OUT  0x1A,R30
                 ; 0000 0064     // State: Bit7=T Bit6=T Bit5=T Bit4=T Bit3=T Bit2=T Bit1=T Bit0=T
                 ; 0000 0065     PORTA=(0<<PORTA7) | (0<<PORTA6) | (0<<PORTA5) | (0<<PORTA4) | (0<<PORTA3) | (0<<PORTA2) | (0<<PORTA1) | (0<<PORTA0);
0001e2 bbeb      	OUT  0x1B,R30
                 ; 0000 0066 
                 ; 0000 0067     // Port B initialization
                 ; 0000 0068     // Function: Bit7=Out Bit6=In Bit5=Out Bit4=Out Bit3=In Bit2=In Bit1=Out Bit0=In
                 ; 0000 0069     DDRB=(1<<DDB7) | (0<<DDB6) | (1<<DDB5) | (1<<DDB4) | (0<<DDB3) | (0<<DDB2) | (1<<DDB1) | (0<<DDB0);
0001e3 ebe2      	LDI  R30,LOW(178)
0001e4 bbe7      	OUT  0x17,R30
                 ; 0000 006A     // State: Bit7=0 Bit6=T Bit5=0 Bit4=0 Bit3=T Bit2=T Bit1=0 Bit0=T
                 ; 0000 006B     PORTB=(0<<PORTB7) | (0<<PORTB6) | (0<<PORTB5) | (0<<PORTB4) | (0<<PORTB3) | (0<<PORTB2) | (0<<PORTB1) | (0<<PORTB0);
0001e5 e0e0      	LDI  R30,LOW(0)
0001e6 bbe8      	OUT  0x18,R30
                 ; 0000 006C 
                 ; 0000 006D     // Port C initialization
                 ; 0000 006E     // Function: Bit7=In Bit6=In Bit5=In Bit4=In Bit3=In Bit2=In Bit1=In Bit0=In
                 ; 0000 006F     DDRC=(0<<DDC7) | (0<<DDC6) | (0<<DDC5) | (0<<DDC4) | (0<<DDC3) | (0<<DDC2) | (0<<DDC1) | (0<<DDC0);
0001e7 bbe4      	OUT  0x14,R30
                 ; 0000 0070     // State: Bit7=T Bit6=T Bit5=T Bit4=T Bit3=T Bit2=T Bit1=T Bit0=T
                 ; 0000 0071     PORTC=(0<<PORTC7) | (0<<PORTC6) | (0<<PORTC5) | (0<<PORTC4) | (0<<PORTC3) | (0<<PORTC2) | (0<<PORTC1) | (0<<PORTC0);
0001e8 bbe5      	OUT  0x15,R30
                 ; 0000 0072 
                 ; 0000 0073     // Port D initialization
                 ; 0000 0074     // Function: Bit7=In Bit6=Out Bit5=Out Bit4=In Bit3=In Bit2=In Bit1=In Bit0=In
                 ; 0000 0075     DDRD=(0<<DDD7) | (1<<DDD6) | (1<<DDD5) | (0<<DDD4) | (0<<DDD3) | (0<<DDD2) | (0<<DDD1) | (0<<DDD0);
0001e9 e6e0      	LDI  R30,LOW(96)
0001ea bbe1      	OUT  0x11,R30
                 ; 0000 0076     // State: Bit7=T Bit6=0 Bit5=0 Bit4=T Bit3=T Bit2=T Bit1=T Bit0=T
                 ; 0000 0077     PORTD=(0<<PORTD7) | (0<<PORTD6) | (0<<PORTD5) | (0<<PORTD4) | (0<<PORTD3) | (0<<PORTD2) | (0<<PORTD1) | (0<<PORTD0);
0001eb e0e0      	LDI  R30,LOW(0)
0001ec bbe2      	OUT  0x12,R30
                 ; 0000 0078 
                 ; 0000 0079     /* Timers off */
                 ; 0000 007A     TCCR0=0; TCCR1A=0; TCCR1B=0; TCCR2=0;
0001ed bfe3      	OUT  0x33,R30
0001ee bdef      	OUT  0x2F,R30
0001ef bdee      	OUT  0x2E,R30
0001f0 bde5      	OUT  0x25,R30
                 ; 0000 007B     /* External INTs: INT0/1 falling-edge */
                 ; 0000 007C     GICR|=(1<<INT1)|(1<<INT0);
0001f1 b7eb      	IN   R30,0x3B
0001f2 6ce0      	ORI  R30,LOW(0xC0)
0001f3 bfeb      	OUT  0x3B,R30
                 ; 0000 007D     MCUCR=(1<<ISC11)|(0<<ISC10)|(1<<ISC01)|(0<<ISC00);
0001f4 e0ea      	LDI  R30,LOW(10)
0001f5 bfe5      	OUT  0x35,R30
                 ; 0000 007E     GIFR=(1<<INTF1)|(1<<INTF0);
0001f6 ece0      	LDI  R30,LOW(192)
0001f7 bfea      	OUT  0x3A,R30
                 ; 0000 007F     /* USART/ADC/AC off */
                 ; 0000 0080     UCSRB=0; ADCSRA=0; ACSR=(1<<ACD);
0001f8 e0e0      	LDI  R30,LOW(0)
0001f9 b9ea      	OUT  0xA,R30
0001fa b9e6      	OUT  0x6,R30
0001fb e8e0      	LDI  R30,LOW(128)
0001fc b9e8      	OUT  0x8,R30
                 ; 0000 0081     /* SPI fosc/128 125kHz */
                 ; 0000 0082     SPCR=(1<<SPE)|(1<<MSTR)|(1<<SPR1)|(1<<SPR0); SPSR=0;
0001fd e5e3      	LDI  R30,LOW(83)
0001fe b9ed      	OUT  0xD,R30
0001ff e0e0      	LDI  R30,LOW(0)
000200 b9ee      	OUT  0xE,R30
                 ; 0000 0083 
                 ; 0000 0084     /* LCD + enable interrupts */
                 ; 0000 0085     lcd_init(16);
000201 e1a0      	LDI  R26,LOW(16)
000202 940e 06be 	CALL _lcd_init
                 ; 0000 0086     #asm("sei")
000204 9478      	sei
                 ; 0000 0087 
                 ; 0000 0088     /* RC522 */
                 ; 0000 0089     rc522_init();
000205 d211      	RCALL _rc522_init
                 ; 0000 008A 
                 ; 0000 008B     while(1){
                 _0x26:
                 ; 0000 008C         uchar uid[10], uid_len, sak;
                 ; 0000 008D         uchar atqa[2];
                 ; 0000 008E         uchar buf[16], verify[16], write16[16];
                 ; 0000 008F         uchar i;
                 ; 0000 0090         char st;
                 ; 0000 0091 
                 ; 0000 0092         /* Welcome + quiet poll */
                 ; 0000 0093         screen=0; menu_list=0; write_menu=0; read_selected=0; write_selected=0;
000206 97ef      	SBIW R28,63
000207 9721      	SBIW R28,1
                 ;	uid -> Y+54
                 ;	uid_len -> Y+53
                 ;	sak -> Y+52
                 ;	atqa -> Y+50
                 ;	buf -> Y+34
                 ;	verify -> Y+18
                 ;	write16 -> Y+2
                 ;	i -> Y+1
                 ;	st -> Y+0
000208 e0e0      	LDI  R30,LOW(0)
000209 93e0 026f 	STS  _screen_G000,R30
00020b 93e0 0270 	STS  _screen_G000+1,R30
00020d 93e0 0269 	STS  _menu_list_G000,R30
00020f 93e0 026a 	STS  _menu_list_G000+1,R30
000211 93e0 026b 	STS  _write_menu_G000,R30
000213 93e0 026c 	STS  _write_menu_G000+1,R30
000215 93e0 026d 	STS  _read_selected_G000,R30
000217 93e0 026e 	STS  _write_selected_G000,R30
                 ; 0000 0094         lcd_welcome_init();
000219 df13      	RCALL _lcd_welcome_init_G000
                 ; 0000 0095         {
                 ; 0000 0096             unsigned char step=0;
                 ; 0000 0097             while(1){
00021a 9721      	SBIW R28,1
00021b e0e0      	LDI  R30,LOW(0)
00021c 83e8      	ST   Y,R30
                 ;	uid -> Y+55
                 ;	uid_len -> Y+54
                 ;	sak -> Y+53
                 ;	atqa -> Y+51
                 ;	buf -> Y+35
                 ;	verify -> Y+19
                 ;	write16 -> Y+3
                 ;	i -> Y+2
                 ;	st -> Y+1
                 ;	step -> Y+0
                 _0x29:
                 ; 0000 0098                 st = rc522_request(PICC_REQIDL, atqa);
00021d e2e6      	LDI  R30,LOW(38)
00021e 940e 0757 	CALL SUBOPT_0x7
                 ; 0000 0099                 if(st==MI_OK) break;
000220 f061      	BREQ _0x2B
                 ; 0000 009A                 st = rc522_request(0x52, atqa);
000221 e5e2      	LDI  R30,LOW(82)
000222 940e 0757 	CALL SUBOPT_0x7
                 ; 0000 009B                 if(st==MI_OK) break;
000224 f041      	BREQ _0x2B
                 ; 0000 009C                 lcd_welcome_anim(step++);
000225 81a8      	LD   R26,Y
000226 5faf      	SUBI R26,-LOW(1)
000227 83a8      	ST   Y,R26
000228 50a1      	SUBI R26,LOW(1)
000229 df0e      	RCALL _lcd_welcome_anim_G000
                 ; 0000 009D                 delay_ms(120);
00022a 940e 075f 	CALL SUBOPT_0x8
                 ; 0000 009E             }
00022c cff0      	RJMP _0x29
                 _0x2B:
                 ; 0000 009F         }
00022d 9621      	ADIW R28,1
                 ; 0000 00A0 
                 ; 0000 00A1         uid_len = rc522_get_uid(uid);
00022e 01de      	MOVW R26,R28
00022f 96d6      	ADIW R26,54
000230 d279      	RCALL _rc522_get_uid
000231 abed      	STD  Y+53,R30
                 ; 0000 00A2         if(!uid_len){ show_error(MI_COMM_ERR); delay_ms(500); continue; }
000232 30e0      	CPI  R30,0
000233 f421      	BRNE _0x2E
000234 e0a3      	LDI  R26,LOW(3)
000235 940e 0763 	CALL SUBOPT_0x9
000237 cfce      	RJMP _0x26
                 ; 0000 00A3         st = rc522_select(uid, uid_len, &sak);
                 _0x2E:
000238 01fe      	MOVW R30,R28
000239 96f6      	ADIW R30,54
00023a 93fa      	ST   -Y,R31
00023b 93ea      	ST   -Y,R30
00023c a9ef      	LDD  R30,Y+55
00023d 93ea      	ST   -Y,R30
00023e 01de      	MOVW R26,R28
00023f 96d7      	ADIW R26,55
000240 d30c      	RCALL _rc522_select
000241 83e8      	ST   Y,R30
                 ; 0000 00A4         if(st!=MI_OK){ show_error(st); delay_ms(500); continue; }
000242 30e0      	CPI  R30,0
000243 f021      	BREQ _0x2F
000244 81a8      	LD   R26,Y
000245 940e 0763 	CALL SUBOPT_0x9
000247 cfbe      	RJMP _0x26
                 ; 0000 00A5 
                 ; 0000 00A6         /* Auth + read block 8 */
                 ; 0000 00A7         if(mifare_auth_keyA(8, uid)!=MI_OK){ show_error(MI_AUTH_ERR); delay_ms(700); mifare_stop_crypto(); continue; }
                 _0x2F:
000248 e0e8      	LDI  R30,LOW(8)
000249 93ea      	ST   -Y,R30
00024a 01de      	MOVW R26,R28
00024b 96d7      	ADIW R26,55
00024c d323      	RCALL _mifare_auth_keyA
00024d 30e0      	CPI  R30,0
00024e f021      	BREQ _0x30
00024f e0a6      	LDI  R26,LOW(6)
000250 940e 076c 	CALL SUBOPT_0xA
000252 cfb3      	RJMP _0x26
                 ; 0000 00A8         if(mifare_read_block(8, buf)!=MI_OK){ show_error(MI_COMM_ERR); delay_ms(700); mifare_stop_crypto(); continue; }
                 _0x30:
000253 e0e8      	LDI  R30,LOW(8)
000254 93ea      	ST   -Y,R30
000255 01de      	MOVW R26,R28
000256 9693      	ADIW R26,35
000257 940e 05b0 	CALL _mifare_read_block
000259 30e0      	CPI  R30,0
00025a f021      	BREQ _0x31
00025b e0a3      	LDI  R26,LOW(3)
00025c 940e 076c 	CALL SUBOPT_0xA
00025e cfa7      	RJMP _0x26
                 ; 0000 00A9 
                 ; 0000 00AA         if(is_empty16(buf)){
                 _0x31:
00025f 01de      	MOVW R26,R28
000260 9692      	ADIW R26,34
000261 df31      	RCALL _is_empty16_G000
000262 30e0      	CPI  R30,0
000263 f409      	BRNE PC+2
000264 c063      	RJMP _0x32
                 ; 0000 00AB             /* EMPTY: menu via INT0/INT1 */
                 ; 0000 00AC             unsigned int idle_ticks_empty = 0;
                 ; 0000 00AD             screen=2; draw_menu_empty();
000265 9722      	SBIW R28,2
000266 e0e0      	LDI  R30,LOW(0)
000267 83e8      	ST   Y,R30
000268 83e9      	STD  Y+1,R30
                 ;	uid -> Y+56
                 ;	uid_len -> Y+55
                 ;	sak -> Y+54
                 ;	atqa -> Y+52
                 ;	buf -> Y+36
                 ;	verify -> Y+20
                 ;	write16 -> Y+4
                 ;	i -> Y+3
                 ;	st -> Y+2
                 ;	idle_ticks_empty -> Y+0
000269 e0e2      	LDI  R30,LOW(2)
00026a e0f0      	LDI  R31,HIGH(2)
00026b 93e0 026f 	STS  _screen_G000,R30
00026d 93f0 0270 	STS  _screen_G000+1,R31
00026f df54      	RCALL _draw_menu_empty_G000
                 ; 0000 00AE             while(screen==2){
                 _0x33:
000270 940e 0737 	CALL SUBOPT_0x2
000272 f009      	BREQ PC+2
000273 c053      	RJMP _0x35
                 ; 0000 00AF                 if(write_selected){
000274 91e0 026e 	LDS  R30,_write_selected_G000
000276 30e0      	CPI  R30,0
000277 f409      	BRNE PC+2
000278 c047      	RJMP _0x36
                 ; 0000 00B0                     for(i=0;i<16;i++) write16[i]=0x00;
000279 e0e0      	LDI  R30,LOW(0)
00027a 83eb      	STD  Y+3,R30
                 _0x38:
00027b 81ab      	LDD  R26,Y+3
00027c 31a0      	CPI  R26,LOW(0x10)
00027d f440      	BRSH _0x39
00027e 940e 0777 	CALL SUBOPT_0xB
000280 e0e0      	LDI  R30,LOW(0)
000281 93ec      	ST   X,R30
000282 81eb      	LDD  R30,Y+3
000283 5fef      	SUBI R30,-LOW(1)
000284 83eb      	STD  Y+3,R30
000285 cff5      	RJMP _0x38
                 _0x39:
                 ; 0000 00B1 for(i=0;i<8;i++)  write16[i]=password[i];
000286 e0e0      	LDI  R30,LOW(0)
000287 83eb      	STD  Y+3,R30
                 _0x3B:
000288 81ab      	LDD  R26,Y+3
000289 30a8      	CPI  R26,LOW(0x8)
00028a f440      	BRSH _0x3C
00028b 940e 0777 	CALL SUBOPT_0xB
00028d 940e 077e 	CALL SUBOPT_0xC
00028f 81eb      	LDD  R30,Y+3
000290 5fef      	SUBI R30,-LOW(1)
000291 83eb      	STD  Y+3,R30
000292 cff5      	RJMP _0x3B
                 _0x3C:
                 ; 0000 00B2 if(mifare_write_block(8, write16)==0 &&
                 ; 0000 00B3                        mifare_read_block(8, verify)==MI_OK &&
                 ; 0000 00B4                        memcmp(verify, write16, 16)==0){
000293 940e 0785 	CALL SUBOPT_0xD
000295 f4a9      	BRNE _0x3E
000296 e0e8      	LDI  R30,LOW(8)
000297 93ea      	ST   -Y,R30
000298 01de      	MOVW R26,R28
000299 9655      	ADIW R26,21
00029a d315      	RCALL _mifare_read_block
00029b 30e0      	CPI  R30,0
00029c f471      	BRNE _0x3E
00029d 01fe      	MOVW R30,R28
00029e 9674      	ADIW R30,20
00029f 93fa      	ST   -Y,R31
0002a0 93ea      	ST   -Y,R30
0002a1 01fe      	MOVW R30,R28
0002a2 9636      	ADIW R30,6
0002a3 93fa      	ST   -Y,R31
0002a4 93ea      	ST   -Y,R30
0002a5 e1a0      	LDI  R26,LOW(16)
0002a6 e0b0      	LDI  R27,0
0002a7 940e 06ec 	CALL _memcmp
0002a9 30e0      	CPI  R30,0
0002aa f009      	BREQ _0x3F
                 _0x3E:
0002ab c00b      	RJMP _0x3D
                 _0x3F:
                 ; 0000 00B5                         GREEN_LED_PORT |= (1<<GREEN_LED_PIN);
0002ac 940e 078d 	CALL SUBOPT_0xE
                 ; 0000 00B6                         BUZZER_PORT |= (1<<BUZZER_PIN); delay_ms(200);
                 ; 0000 00B7                         lcd_clear(); lcd_gotoxy(0,0); lcd_putsf("Write OK");
                +
0002ae e1a0     +LDI R26 , LOW ( 2 * _0x0 + ( 162 ) )
0002af e0b1     +LDI R27 , HIGH ( 2 * _0x0 + ( 162 ) )
                 	__POINTW2FN _0x0,162
0002b0 940e 0744 	CALL SUBOPT_0x4
                 ; 0000 00B8                         lcd_gotoxy(0,1); lcd_putsf("Match");
                +
0002b2 e1a9     +LDI R26 , LOW ( 2 * _0x0 + ( 171 ) )
0002b3 e0b1     +LDI R27 , HIGH ( 2 * _0x0 + ( 171 ) )
                 	__POINTW2FN _0x0,171
0002b4 940e 0794 	CALL SUBOPT_0xF
                 ; 0000 00B9                         BUZZER_PORT &= ~(1<<BUZZER_PIN);
                 ; 0000 00BA                         GREEN_LED_PORT &= ~(1<<GREEN_LED_PIN);
                 ; 0000 00BB                     }else{
0002b6 c006      	RJMP _0x40
                 _0x3D:
                 ; 0000 00BC                         RED_LED_PORT |= (1<<RED_LED_PIN);
0002b7 940e 0799 	CALL SUBOPT_0x10
                 ; 0000 00BD                         BUZZER_PORT |= (1<<BUZZER_PIN); delay_ms(120);
                 ; 0000 00BE                         show_error(MI_COMM_ERR);
0002b9 e0a3      	LDI  R26,LOW(3)
0002ba dea1      	RCALL _show_error_G000
                 ; 0000 00BF                         BUZZER_PORT &= ~(1<<BUZZER_PIN);
0002bb 9895      	CBI  0x12,5
                 ; 0000 00C0                         RED_LED_PORT &= ~(1<<RED_LED_PIN);
0002bc 98c1      	CBI  0x18,1
                 ; 0000 00C1                     }
                 _0x40:
                 ; 0000 00C2                     write_selected=0;
0002bd 940e 079c 	CALL SUBOPT_0x11
                 ; 0000 00C3                     mifare_stop_crypto();
                 ; 0000 00C4                     delay_ms(900);
                 ; 0000 00C5                     break; /* back to welcome */
0002bf c007      	RJMP _0x35
                 ; 0000 00C6                 }
                 ; 0000 00C7 
                 ; 0000 00C8                 /* auto-exit to Welcome if user removed card (approximated by idle timeout) */
                 ; 0000 00C9                 delay_ms(150);
                 _0x36:
0002c0 940e 07a5 	CALL SUBOPT_0x12
                 ; 0000 00CA                 idle_ticks_empty++;
                 ; 0000 00CB                 if(idle_ticks_empty > 60){ /* ~9s */
0002c2 f420      	BRSH _0x35
                 ; 0000 00CC                     break; /* back to welcome */
                 ; 0000 00CD                 }
                 ; 0000 00CE 
                 ; 0000 00CF                 /* refresh menu if user pressed next */
                 ; 0000 00D0                 draw_menu_empty();
0002c3 df00      	RCALL _draw_menu_empty_G000
                 ; 0000 00D1                 delay_ms(120);
0002c4 940e 075f 	CALL SUBOPT_0x8
                 ; 0000 00D2             }
0002c6 cfa9      	RJMP _0x33
                 _0x35:
                 ; 0000 00D3         }else{
0002c7 c07d      	RJMP _0x59
                 _0x32:
                 ; 0000 00D4             /* HAS DATA: menu via INT0/INT1 */
                 ; 0000 00D5             unsigned int idle_ticks_data = 0;
                 ; 0000 00D6             screen=1; draw_menu_hasdata();
0002c8 9722      	SBIW R28,2
0002c9 e0e0      	LDI  R30,LOW(0)
0002ca 83e8      	ST   Y,R30
0002cb 83e9      	STD  Y+1,R30
                 ;	uid -> Y+56
                 ;	uid_len -> Y+55
                 ;	sak -> Y+54
                 ;	atqa -> Y+52
                 ;	buf -> Y+36
                 ;	verify -> Y+20
                 ;	write16 -> Y+4
                 ;	i -> Y+3
                 ;	st -> Y+2
                 ;	idle_ticks_data -> Y+0
0002cc e0e1      	LDI  R30,LOW(1)
0002cd e0f0      	LDI  R31,HIGH(1)
0002ce 93e0 026f 	STS  _screen_G000,R30
0002d0 93f0 0270 	STS  _screen_G000+1,R31
0002d2 ded7      	RCALL _draw_menu_hasdata_G000
                 ; 0000 00D7             while(screen==1){
                 _0x43:
0002d3 91a0 026f 	LDS  R26,_screen_G000
0002d5 91b0 0270 	LDS  R27,_screen_G000+1
0002d7 9711      	SBIW R26,1
0002d8 f009      	BREQ PC+2
0002d9 c06b      	RJMP _0x45
                 ; 0000 00D8                 if(read_selected){
0002da 91e0 026d 	LDS  R30,_read_selected_G000
0002dc 30e0      	CPI  R30,0
0002dd f179      	BREQ _0x46
                 ; 0000 00D9                     if(strncmp((char*)buf,(char*)password,8)==0){
0002de 01fe      	MOVW R30,R28
0002df 96b4      	ADIW R30,36
0002e0 93fa      	ST   -Y,R31
0002e1 93ea      	ST   -Y,R30
0002e2 e6e0      	LDI  R30,LOW(_password_G000)
0002e3 e0f2      	LDI  R31,HIGH(_password_G000)
0002e4 93fa      	ST   -Y,R31
0002e5 93ea      	ST   -Y,R30
0002e6 e0a8      	LDI  R26,LOW(8)
0002e7 940e 0705 	CALL _strncmp
0002e9 30e0      	CPI  R30,0
0002ea f459      	BRNE _0x47
                 ; 0000 00DA                         GREEN_LED_PORT |= (1<<GREEN_LED_PIN);
0002eb 940e 078d 	CALL SUBOPT_0xE
                 ; 0000 00DB                         BUZZER_PORT |= (1<<BUZZER_PIN); delay_ms(200);
                 ; 0000 00DC                         lcd_clear(); lcd_gotoxy(0,0); lcd_putsf("Password OK");
                +
0002ed e1af     +LDI R26 , LOW ( 2 * _0x0 + ( 177 ) )
0002ee e0b1     +LDI R27 , HIGH ( 2 * _0x0 + ( 177 ) )
                 	__POINTW2FN _0x0,177
0002ef 940e 0744 	CALL SUBOPT_0x4
                 ; 0000 00DD                         lcd_gotoxy(0,1); lcd_putsf("Access granted");
                +
0002f1 e2ab     +LDI R26 , LOW ( 2 * _0x0 + ( 189 ) )
0002f2 e0b1     +LDI R27 , HIGH ( 2 * _0x0 + ( 189 ) )
                 	__POINTW2FN _0x0,189
0002f3 940e 0794 	CALL SUBOPT_0xF
                 ; 0000 00DE                         BUZZER_PORT &= ~(1<<BUZZER_PIN);
                 ; 0000 00DF                         GREEN_LED_PORT &= ~(1<<GREEN_LED_PIN);
                 ; 0000 00E0                     }else{
0002f5 c00e      	RJMP _0x48
                 _0x47:
                 ; 0000 00E1                         RED_LED_PORT |= (1<<RED_LED_PIN);
0002f6 940e 0799 	CALL SUBOPT_0x10
                 ; 0000 00E2                         BUZZER_PORT |= (1<<BUZZER_PIN); delay_ms(120);
                 ; 0000 00E3                         lcd_clear(); lcd_gotoxy(0,0); lcd_putsf("Password NG");
0002f8 940e 073d 	CALL SUBOPT_0x3
                +
0002fa e3aa     +LDI R26 , LOW ( 2 * _0x0 + ( 204 ) )
0002fb e0b1     +LDI R27 , HIGH ( 2 * _0x0 + ( 204 ) )
                 	__POINTW2FN _0x0,204
0002fc 940e 0744 	CALL SUBOPT_0x4
                 ; 0000 00E4                         lcd_gotoxy(0,1); lcd_putsf("Try again");
                +
0002fe e4a6     +LDI R26 , LOW ( 2 * _0x0 + ( 216 ) )
0002ff e0b1     +LDI R27 , HIGH ( 2 * _0x0 + ( 216 ) )
                 	__POINTW2FN _0x0,216
000300 940e 06ab 	CALL _lcd_putsf
                 ; 0000 00E5                         BUZZER_PORT &= ~(1<<BUZZER_PIN);
000302 9895      	CBI  0x12,5
                 ; 0000 00E6                         RED_LED_PORT &= ~(1<<RED_LED_PIN);
000303 98c1      	CBI  0x18,1
                 ; 0000 00E7                     }
                 _0x48:
                 ; 0000 00E8                     read_selected=0;
000304 e0e0      	LDI  R30,LOW(0)
000305 93e0 026d 	STS  _read_selected_G000,R30
                 ; 0000 00E9                     mifare_stop_crypto();
000307 d2a0      	RCALL _mifare_stop_crypto
                 ; 0000 00EA                     delay_ms(900);
000308 e8a4      	LDI  R26,LOW(900)
000309 e0b3      	LDI  R27,HIGH(900)
00030a 940e 0801 	CALL _delay_ms
                 ; 0000 00EB                     break;
00030c c038      	RJMP _0x45
                 ; 0000 00EC                 }else if(write_selected){
                 _0x46:
00030d 91e0 026e 	LDS  R30,_write_selected_G000
00030f 30e0      	CPI  R30,0
000310 f169      	BREQ _0x4A
                 ; 0000 00ED                     for(i=0;i<16;i++) write16[i]=0x00;
000311 e0e0      	LDI  R30,LOW(0)
000312 83eb      	STD  Y+3,R30
                 _0x4C:
000313 81ab      	LDD  R26,Y+3
000314 31a0      	CPI  R26,LOW(0x10)
000315 f440      	BRSH _0x4D
000316 940e 0777 	CALL SUBOPT_0xB
000318 e0e0      	LDI  R30,LOW(0)
000319 93ec      	ST   X,R30
00031a 81eb      	LDD  R30,Y+3
00031b 5fef      	SUBI R30,-LOW(1)
00031c 83eb      	STD  Y+3,R30
00031d cff5      	RJMP _0x4C
                 _0x4D:
                 ; 0000 00EE for(i=0;i<8;i++)  write16[i]=password[i];
00031e e0e0      	LDI  R30,LOW(0)
00031f 83eb      	STD  Y+3,R30
                 _0x4F:
000320 81ab      	LDD  R26,Y+3
000321 30a8      	CPI  R26,LOW(0x8)
000322 f440      	BRSH _0x50
000323 940e 0777 	CALL SUBOPT_0xB
000325 940e 077e 	CALL SUBOPT_0xC
000327 81eb      	LDD  R30,Y+3
000328 5fef      	SUBI R30,-LOW(1)
000329 83eb      	STD  Y+3,R30
00032a cff5      	RJMP _0x4F
                 _0x50:
                 ; 0000 00EF if(mifare_write_block(8, write16)==0){
00032b 940e 0785 	CALL SUBOPT_0xD
00032d f439      	BRNE _0x51
                 ; 0000 00F0                         GREEN_LED_PORT |= (1<<GREEN_LED_PIN);
00032e 940e 078d 	CALL SUBOPT_0xE
                 ; 0000 00F1                         BUZZER_PORT |= (1<<BUZZER_PIN); delay_ms(200);
                 ; 0000 00F2                         lcd_clear(); lcd_gotoxy(0,0); lcd_putsf("Write done");
                +
000330 e5a0     +LDI R26 , LOW ( 2 * _0x0 + ( 226 ) )
000331 e0b1     +LDI R27 , HIGH ( 2 * _0x0 + ( 226 ) )
                 	__POINTW2FN _0x0,226
000332 940e 0794 	CALL SUBOPT_0xF
                 ; 0000 00F3                         BUZZER_PORT &= ~(1<<BUZZER_PIN);
                 ; 0000 00F4                         GREEN_LED_PORT &= ~(1<<GREEN_LED_PIN);
                 ; 0000 00F5                     }else{
000334 c006      	RJMP _0x52
                 _0x51:
                 ; 0000 00F6                         RED_LED_PORT |= (1<<RED_LED_PIN);
000335 940e 0799 	CALL SUBOPT_0x10
                 ; 0000 00F7                         BUZZER_PORT |= (1<<BUZZER_PIN); delay_ms(120);
                 ; 0000 00F8                         show_error(MI_COMM_ERR);
000337 e0a3      	LDI  R26,LOW(3)
000338 de23      	RCALL _show_error_G000
                 ; 0000 00F9                         BUZZER_PORT &= ~(1<<BUZZER_PIN);
000339 9895      	CBI  0x12,5
                 ; 0000 00FA                         RED_LED_PORT &= ~(1<<RED_LED_PIN);
00033a 98c1      	CBI  0x18,1
                 ; 0000 00FB                     }
                 _0x52:
                 ; 0000 00FC                     write_selected=0;
00033b 940e 079c 	CALL SUBOPT_0x11
                 ; 0000 00FD                     mifare_stop_crypto();
                 ; 0000 00FE                     delay_ms(900);
                 ; 0000 00FF                     break;
00033d c007      	RJMP _0x45
                 ; 0000 0100                 }
                 ; 0000 0101 
                 ; 0000 0102                 /* auto-exit to Welcome if user removed card (approximated by idle timeout) */
                 ; 0000 0103                 delay_ms(150);
                 _0x4A:
00033e 940e 07a5 	CALL SUBOPT_0x12
                 ; 0000 0104                 idle_ticks_data++;
                 ; 0000 0105                 if(idle_ticks_data > 60){ /* ~9s */
000340 f420      	BRSH _0x45
                 ; 0000 0106                     break; /* back to welcome */
                 ; 0000 0107                 }
                 ; 0000 0108 
                 ; 0000 0109                 /* refresh menu if user pressed next */
                 ; 0000 010A                 draw_menu_hasdata();
000341 de68      	RCALL _draw_menu_hasdata_G000
                 ; 0000 010B                 delay_ms(120);
000342 940e 075f 	CALL SUBOPT_0x8
                 ; 0000 010C             }
000344 cf8e      	RJMP _0x43
                 _0x45:
                 ; 0000 010D         }
                 _0x59:
000345 9622      	ADIW R28,2
                 ; 0000 010E     }
000346 96ef      	ADIW R28,63
000347 9621      	ADIW R28,1
000348 cebd      	RJMP _0x26
                 ; 0000 010F }
                 _0x54:
000349 cfff      	RJMP _0x54
                 ; .FEND
                 ;#include <mega32.h>
                 	#ifndef __SLEEP_DEFINED__
                 	#endif
                 ;#include <spi.h>
                 ;#include <delay.h>
                 ;#include "rfid.h"
                 ;
                 ;/* --- RC522 regs --- */
                 ;#define CommandReg       0x01
                 ;#define ComIEnReg        0x02
                 ;#define ComIrqReg        0x04
                 ;#define DivIrqReg        0x05
                 ;#define ErrorReg         0x06
                 ;#define Status1Reg       0x07
                 ;#define Status2Reg       0x08
                 ;#define FIFODataReg      0x09
                 ;#define FIFOLevelReg     0x0A
                 ;#define ControlReg       0x0C
                 ;#define BitFramingReg    0x0D
                 ;#define CollReg          0x0E
                 ;#define ModeReg          0x11
                 ;#define TxControlReg     0x14
                 ;#define TxASKReg         0x15
                 ;#define CRCResultRegH    0x21
                 ;#define CRCResultRegL    0x22
                 ;#define TModeReg         0x2A
                 ;#define TPrescalerReg    0x2B
                 ;#define TReloadRegH      0x2C
                 ;#define TReloadRegL      0x2D
                 ;
                 ;/* --- RC522 cmds --- */
                 ;#define PCD_Idle         0x00
                 ;#define PCD_CalcCRC      0x03
                 ;#define PCD_Transceive   0x0C
                 ;#define PCD_SoftReset    0x0F
                 ;#define PCD_MFAuthent    0x0E
                 ;
                 ;/* --- ISO14443A/PICC --- */
                 ;#define PICC_REQIDL        0x26
                 ;#define PICC_ANTICOLL_CL1  0x93
                 ;#define PICC_ANTICOLL_CL2  0x95
                 ;#define PICC_SELECT_CL1    0x93
                 ;#define PICC_SELECT_CL2    0x95
                 ;
                 ;/* --- MIFARE Classic --- */
                 ;#define MF_AUTH_KEY_A    0x60
                 ;#define MF_READ          0x30
                 ;#define MF_WRITE         0xA0
                 ;
                 ;/* --- Default Key A --- */
                 ;static uchar keyA[6]={0xFF,0xFF,0xFF,0xFF,0xFF,0xFF};
                 
                 	.DSEG
                 ;
                 ;/* --- CS helpers --- */
                 ;static void cs_low(void){  RC522_CS_PORT &= ~(1<<RC522_CS_BIT); }
                 ; 0001 0034 static void cs_low(void){  PORTB &= ~(1<<4   ); }
                 
                 	.CSEG
                 _cs_low_G001:
                 ; .FSTART _cs_low_G001
00034a 98c4      	CBI  0x18,4
00034b 9508      	RET
                 ; .FEND
                 ;static void cs_high(void){ RC522_CS_PORT |=  (1<<RC522_CS_BIT); }
                 ; 0001 0035 static void cs_high(void){ PORTB |=  (1<<4   ); }
                 _cs_high_G001:
                 ; .FSTART _cs_high_G001
00034c 9ac4      	SBI  0x18,4
00034d 9508      	RET
                 ; .FEND
                 ;
                 ;/* ===== Low-level R/W ===== */
                 ;void rc522_write(uchar reg, uchar val){
                 ; 0001 0038 void rc522_write(uchar reg, uchar val){
                 _rc522_write:
                 ; .FSTART _rc522_write
                 ; 0001 0039     cs_low(); spi((reg<<1)&0x7E); spi(val); cs_high();
00034e 93aa      	ST   -Y,R26
                 ;	reg -> Y+1
                 ;	val -> Y+0
00034f dffa      	RCALL _cs_low_G001
000350 81e9      	LDD  R30,Y+1
000351 0fee      	LSL  R30
000352 77ee      	ANDI R30,LOW(0x7E)
000353 2fae      	MOV  R26,R30
000354 940e 071e 	CALL _spi
000356 81a8      	LD   R26,Y
000357 940e 071e 	CALL _spi
000359 dff2      	RCALL _cs_high_G001
                 ; 0001 003A }
00035a 940c 0686 	JMP  _0x20A0002
                 ; .FEND
                 ;uchar rc522_read(uchar reg){
                 ; 0001 003B uchar rc522_read(uchar reg){
                 _rc522_read:
                 ; .FSTART _rc522_read
                 ; 0001 003C     uchar v;
                 ; 0001 003D     cs_low(); spi(((reg<<1)&0x7E)|0x80); v=spi(0x00); cs_high();
00035c 93aa      	ST   -Y,R26
00035d 931a      	ST   -Y,R17
                 ;	reg -> Y+1
                 ;	v -> R17
00035e dfeb      	RCALL _cs_low_G001
00035f 81e9      	LDD  R30,Y+1
000360 0fee      	LSL  R30
000361 77ee      	ANDI R30,LOW(0x7E)
000362 68e0      	ORI  R30,0x80
000363 2fae      	MOV  R26,R30
000364 940e 071e 	CALL _spi
000366 e0a0      	LDI  R26,LOW(0)
000367 940e 071e 	CALL _spi
000369 2f1e      	MOV  R17,R30
00036a dfe1      	RCALL _cs_high_G001
                 ; 0001 003E     return v;
00036b 2fe1      	MOV  R30,R17
00036c 8118      	LDD  R17,Y+0
00036d 940c 0686 	JMP  _0x20A0002
                 ; 0001 003F }
                 ; .FEND
                 ;void set_bit_mask(uchar reg, uchar mask){ rc522_write(reg, rc522_read(reg)|mask); }
                 ; 0001 0040 void set_bit_mask(uchar reg, uchar mask){ rc522_write(reg, rc522_read(reg)|mask); }
                 _set_bit_mask:
                 ; .FSTART _set_bit_mask
00036f 940e 07b2 	CALL SUBOPT_0x13
                 ;	reg -> Y+1
                 ;	mask -> Y+0
000371 81a9      	LDD  R26,Y+1
000372 2bea      	OR   R30,R26
000373 2fae      	MOV  R26,R30
000374 dfd9      	RCALL _rc522_write
000375 940c 0686 	JMP  _0x20A0002
                 ; .FEND
                 ;void clr_bit_mask(uchar reg, uchar mask){ rc522_write(reg, rc522_read(reg)&(~mask)); }
                 ; 0001 0041 void clr_bit_mask(uchar reg, uchar mask){ rc522_write(reg, rc522_read(reg)&(~mask)); }
                 _clr_bit_mask:
                 ; .FSTART _clr_bit_mask
000377 940e 07b2 	CALL SUBOPT_0x13
                 ;	reg -> Y+1
                 ;	mask -> Y+0
000379 2fae      	MOV  R26,R30
00037a 81e9      	LDD  R30,Y+1
00037b 95e0      	COM  R30
00037c 23ea      	AND  R30,R26
00037d 2fae      	MOV  R26,R30
00037e dfcf      	RCALL _rc522_write
00037f 940c 0686 	JMP  _0x20A0002
                 ; .FEND
                 ;
                 ;/* ===== CRC_A ===== */
                 ;static void rc522_calc_crc(uchar *data, uchar len, uchar *crc2){
                 ; 0001 0044 static void rc522_calc_crc(uchar *data, uchar len, uchar *crc2){
                 _rc522_calc_crc_G001:
                 ; .FSTART _rc522_calc_crc_G001
                 ; 0001 0045     uchar i;
                 ; 0001 0046     rc522_write(CommandReg, PCD_Idle);
000381 940e 07b8 	CALL SUBOPT_0x14
                 ;	*data -> Y+4
                 ;	len -> Y+3
                 ;	*crc2 -> Y+1
                 ;	i -> R17
                 ; 0001 0047     set_bit_mask(FIFOLevelReg, 0x80);
                 ; 0001 0048     for(i=0;i<len;i++) rc522_write(FIFODataReg, data[i]);
000383 e010      	LDI  R17,LOW(0)
                 _0x20005:
000384 81eb      	LDD  R30,Y+3
000385 171e      	CP   R17,R30
000386 f440      	BRSH _0x20006
000387 e0e9      	LDI  R30,LOW(9)
000388 93ea      	ST   -Y,R30
000389 81ad      	LDD  R26,Y+5
00038a 81be      	LDD  R27,Y+5+1
00038b 940e 07c5 	CALL SUBOPT_0x15
00038d 5f1f      	SUBI R17,-1
00038e cff5      	RJMP _0x20005
                 _0x20006:
                 ; 0001 0049 rc522_write(0x01, 0x03);
00038f e0e1      	LDI  R30,LOW(1)
000390 93ea      	ST   -Y,R30
000391 e0a3      	LDI  R26,LOW(3)
000392 dfbb      	RCALL _rc522_write
                 ; 0001 004A     for(i=0;i<255;i++){ if(rc522_read(DivIrqReg) & 0x04) break; }
000393 e010      	LDI  R17,LOW(0)
                 _0x20008:
000394 3f1f      	CPI  R17,255
000395 f430      	BRSH _0x20009
000396 e0a5      	LDI  R26,LOW(5)
000397 dfc4      	RCALL _rc522_read
000398 70e4      	ANDI R30,LOW(0x4)
000399 f411      	BRNE _0x20009
00039a 5f1f      	SUBI R17,-1
00039b cff8      	RJMP _0x20008
                 _0x20009:
                 ; 0001 004B     crc2[0]=rc522_read(CRCResultRegL);
00039c e2a2      	LDI  R26,LOW(34)
00039d dfbe      	RCALL _rc522_read
00039e 81a9      	LDD  R26,Y+1
00039f 81ba      	LDD  R27,Y+1+1
0003a0 93ec      	ST   X,R30
                 ; 0001 004C     crc2[1]=rc522_read(CRCResultRegH);
0003a1 e2a1      	LDI  R26,LOW(33)
0003a2 dfb9      	RCALL _rc522_read
                +
0003a3 81a9     +LDD R26 , Y + 1
0003a4 81ba     +LDD R27 , Y + 1 + 1
0003a5 9611     +ADIW R26 , 1
0003a6 93ec     +ST X , R30
                 	__PUTB1SNS 1,1
                 ; 0001 004D }
0003a7 8118      	LDD  R17,Y+0
0003a8 9626      	ADIW R28,6
0003a9 9508      	RET
                 ; .FEND
                 ;
                 ;/* ===== Transceive ===== */
                 ;static uchar rc522_transceive(uchar *send, uchar sendLen, uchar *back, uchar *backBits){
                 ; 0001 0050 static uchar rc522_transceive(uchar *send, uchar sendLen, uchar *back, uchar *backBits){
                 _rc522_transceive_G001:
                 ; .FSTART _rc522_transceive_G001
                 ; 0001 0051     uchar i, n, lastBits;
                 ; 0001 0052     rc522_write(ComIEnReg, 0x77 | 0x80);
0003aa 93ba      	ST   -Y,R27
0003ab 93aa      	ST   -Y,R26
0003ac 940e 0819 	CALL __SAVELOCR4
                 ;	*send -> Y+9
                 ;	sendLen -> Y+8
                 ;	*back -> Y+6
                 ;	*backBits -> Y+4
                 ;	i -> R17
                 ;	n -> R16
                 ;	lastBits -> R19
0003ae e0e2      	LDI  R30,LOW(2)
0003af 93ea      	ST   -Y,R30
0003b0 efa7      	LDI  R26,LOW(247)
0003b1 df9c      	RCALL _rc522_write
                 ; 0001 0053     clr_bit_mask(ComIrqReg, 0x80);
0003b2 e0e4      	LDI  R30,LOW(4)
0003b3 93ea      	ST   -Y,R30
0003b4 e8a0      	LDI  R26,LOW(128)
0003b5 dfc1      	RCALL _clr_bit_mask
                 ; 0001 0054     set_bit_mask(FIFOLevelReg, 0x80);
0003b6 e0ea      	LDI  R30,LOW(10)
0003b7 93ea      	ST   -Y,R30
0003b8 e8a0      	LDI  R26,LOW(128)
0003b9 dfb5      	RCALL _set_bit_mask
                 ; 0001 0055     rc522_write(CommandReg, PCD_Idle);
0003ba e0e1      	LDI  R30,LOW(1)
0003bb 940e 07cb 	CALL SUBOPT_0x16
                 ; 0001 0056     for(i=0;i<sendLen;i++) rc522_write(FIFODataReg, send[i]);
0003bd e010      	LDI  R17,LOW(0)
                 _0x2000C:
0003be 85e8      	LDD  R30,Y+8
0003bf 171e      	CP   R17,R30
0003c0 f440      	BRSH _0x2000D
0003c1 e0e9      	LDI  R30,LOW(9)
0003c2 93ea      	ST   -Y,R30
0003c3 85aa      	LDD  R26,Y+10
0003c4 85bb      	LDD  R27,Y+10+1
0003c5 940e 07c5 	CALL SUBOPT_0x15
0003c7 5f1f      	SUBI R17,-1
0003c8 cff5      	RJMP _0x2000C
                 _0x2000D:
                 ; 0001 0057 rc522_write(0x01, 0x0C);
0003c9 e0e1      	LDI  R30,LOW(1)
0003ca 93ea      	ST   -Y,R30
0003cb e0ac      	LDI  R26,LOW(12)
0003cc df81      	RCALL _rc522_write
                 ; 0001 0058     set_bit_mask(BitFramingReg, 0x80);
0003cd e0ed      	LDI  R30,LOW(13)
0003ce 93ea      	ST   -Y,R30
0003cf e8a0      	LDI  R26,LOW(128)
0003d0 df9e      	RCALL _set_bit_mask
                 ; 0001 0059     i=200;
0003d1 ec18      	LDI  R17,LOW(200)
                 ; 0001 005A     do{ n=rc522_read(ComIrqReg); }while(--i && !(n&0x30));
                 _0x2000F:
0003d2 e0a4      	LDI  R26,LOW(4)
0003d3 df88      	RCALL _rc522_read
0003d4 2f0e      	MOV  R16,R30
0003d5 5011      	SUBI R17,LOW(1)
0003d6 f011      	BREQ _0x20011
0003d7 73e0      	ANDI R30,LOW(0x30)
0003d8 f009      	BREQ _0x20012
                 _0x20011:
0003d9 c001      	RJMP _0x20010
                 _0x20012:
0003da cff7      	RJMP _0x2000F
                 _0x20010:
                 ; 0001 005B     clr_bit_mask(BitFramingReg,0x80);
0003db e0ed      	LDI  R30,LOW(13)
0003dc 93ea      	ST   -Y,R30
0003dd e8a0      	LDI  R26,LOW(128)
0003de df98      	RCALL _clr_bit_mask
                 ; 0001 005C     if(!i) return MI_TIMEOUT;
0003df 3010      	CPI  R17,0
0003e0 f411      	BRNE _0x20013
0003e1 e0e2      	LDI  R30,LOW(2)
0003e2 c08d      	RJMP _0x20A0009
                 ; 0001 005D     if(rc522_read(ErrorReg)&0x1B) return MI_COMM_ERR;
                 _0x20013:
0003e3 e0a6      	LDI  R26,LOW(6)
0003e4 df77      	RCALL _rc522_read
0003e5 71eb      	ANDI R30,LOW(0x1B)
0003e6 f011      	BREQ _0x20014
0003e7 e0e3      	LDI  R30,LOW(3)
0003e8 c087      	RJMP _0x20A0009
                 ; 0001 005E     n = rc522_read(FIFOLevelReg);
                 _0x20014:
0003e9 e0aa      	LDI  R26,LOW(10)
0003ea df71      	RCALL _rc522_read
0003eb 2f0e      	MOV  R16,R30
                 ; 0001 005F     lastBits = rc522_read(ControlReg) & 0x07;
0003ec e0ac      	LDI  R26,LOW(12)
0003ed df6e      	RCALL _rc522_read
0003ee 70e7      	ANDI R30,LOW(0x7)
0003ef 2f3e      	MOV  R19,R30
                 ; 0001 0060     if(backBits){
0003f0 81ec      	LDD  R30,Y+4
0003f1 81fd      	LDD  R31,Y+4+1
0003f2 9730      	SBIW R30,0
0003f3 f081      	BREQ _0x20015
                 ; 0001 0061         if(lastBits) *backBits = (n-1)*8 + lastBits;
0003f4 3030      	CPI  R19,0
0003f5 f039      	BREQ _0x20016
0003f6 2fe0      	MOV  R30,R16
0003f7 50e1      	SUBI R30,LOW(1)
0003f8 0fee      	LSL  R30
0003f9 0fee      	LSL  R30
0003fa 0fee      	LSL  R30
0003fb 0fe3      	ADD  R30,R19
0003fc c004      	RJMP _0x2004A
                 ; 0001 0062         else         *backBits = n*8;
                 _0x20016:
0003fd 2fe0      	MOV  R30,R16
0003fe 0fee      	LSL  R30
0003ff 0fee      	LSL  R30
000400 0fee      	LSL  R30
                 _0x2004A:
000401 81ac      	LDD  R26,Y+4
000402 81bd      	LDD  R27,Y+4+1
000403 93ec      	ST   X,R30
                 ; 0001 0063     }
                 ; 0001 0064     for(i=0;i<n;i++) back[i]=rc522_read(FIFODataReg);
                 _0x20015:
000404 e010      	LDI  R17,LOW(0)
                 _0x20019:
000405 1710      	CP   R17,R16
000406 f478      	BRSH _0x2001A
000407 2fe1      	MOV  R30,R17
000408 81ae      	LDD  R26,Y+6
000409 81bf      	LDD  R27,Y+6+1
00040a e0f0      	LDI  R31,0
00040b 0fea      	ADD  R30,R26
00040c 1ffb      	ADC  R31,R27
00040d 93ff      	PUSH R31
00040e 93ef      	PUSH R30
00040f e0a9      	LDI  R26,LOW(9)
000410 df4b      	RCALL _rc522_read
000411 91af      	POP  R26
000412 91bf      	POP  R27
000413 93ec      	ST   X,R30
000414 5f1f      	SUBI R17,-1
000415 cfef      	RJMP _0x20019
                 _0x2001A:
                 ; 0001 0065 return 0;
000416 c058      	RJMP _0x20A000A
                 ; 0001 0066 }
                 ; .FEND
                 ;
                 ;/* ===== Init ===== */
                 ;void rc522_init(void){
                 ; 0001 0069 void rc522_init(void){
                 _rc522_init:
                 ; .FSTART _rc522_init
                 ; 0001 006A     RC522_CS_DDR  |= (1<<RC522_CS_BIT);
000417 9abc      	SBI  0x17,4
                 ; 0001 006B     RC522_CS_PORT |= (1<<RC522_CS_BIT);
000418 9ac4      	SBI  0x18,4
                 ; 0001 006C     rc522_write(CommandReg,PCD_SoftReset);
000419 e0e1      	LDI  R30,LOW(1)
00041a 93ea      	ST   -Y,R30
00041b e0af      	LDI  R26,LOW(15)
00041c df31      	RCALL _rc522_write
                 ; 0001 006D     delay_ms(50);
00041d e3a2      	LDI  R26,LOW(50)
00041e e0b0      	LDI  R27,0
00041f 940e 0801 	CALL _delay_ms
                 ; 0001 006E     rc522_write(TModeReg,      0x8D);
000421 e2ea      	LDI  R30,LOW(42)
000422 93ea      	ST   -Y,R30
000423 e8ad      	LDI  R26,LOW(141)
000424 df29      	RCALL _rc522_write
                 ; 0001 006F     rc522_write(TPrescalerReg, 0x3E);
000425 e2eb      	LDI  R30,LOW(43)
000426 93ea      	ST   -Y,R30
000427 e3ae      	LDI  R26,LOW(62)
000428 df25      	RCALL _rc522_write
                 ; 0001 0070     rc522_write(TReloadRegL,   30);
000429 e2ed      	LDI  R30,LOW(45)
00042a 93ea      	ST   -Y,R30
00042b e1ae      	LDI  R26,LOW(30)
00042c df21      	RCALL _rc522_write
                 ; 0001 0071     rc522_write(TReloadRegH,   0);
00042d e2ec      	LDI  R30,LOW(44)
00042e 940e 07cb 	CALL SUBOPT_0x16
                 ; 0001 0072     rc522_write(TxASKReg,      0x40);
000430 e1e5      	LDI  R30,LOW(21)
000431 93ea      	ST   -Y,R30
000432 e4a0      	LDI  R26,LOW(64)
000433 df1a      	RCALL _rc522_write
                 ; 0001 0073     rc522_write(ModeReg,       0x3D);
000434 e1e1      	LDI  R30,LOW(17)
000435 93ea      	ST   -Y,R30
000436 e3ad      	LDI  R26,LOW(61)
000437 df16      	RCALL _rc522_write
                 ; 0001 0074     if(!(rc522_read(TxControlReg)&0x03)) set_bit_mask(TxControlReg,0x03);
000438 e1a4      	LDI  R26,LOW(20)
000439 df22      	RCALL _rc522_read
00043a 70e3      	ANDI R30,LOW(0x3)
00043b f421      	BRNE _0x2001B
00043c e1e4      	LDI  R30,LOW(20)
00043d 93ea      	ST   -Y,R30
00043e e0a3      	LDI  R26,LOW(3)
00043f df2f      	RCALL _set_bit_mask
                 ; 0001 0075 }
                 _0x2001B:
000440 9508      	RET
                 ; .FEND
                 ;
                 ;/* ===== REQA / Anticoll / Select ===== */
                 ;uchar rc522_request(uchar reqMode, uchar *ATQA){
                 ; 0001 0078 uchar rc522_request(uchar reqMode, uchar *ATQA){
                 _rc522_request:
                 ; .FSTART _rc522_request
                 ; 0001 0079     uchar cmd, back[4], bits, st;
                 ; 0001 007A     cmd=reqMode; bits=0;
000441 93ba      	ST   -Y,R27
000442 93aa      	ST   -Y,R26
000443 9724      	SBIW R28,4
000444 940e 0819 	CALL __SAVELOCR4
                 ;	reqMode -> Y+10
                 ;	*ATQA -> Y+8
                 ;	cmd -> R17
                 ;	back -> Y+4
                 ;	bits -> R16
                 ;	st -> R19
000446 851a      	LDD  R17,Y+10
000447 e000      	LDI  R16,LOW(0)
                 ; 0001 007B     rc522_write(BitFramingReg,0x07);
000448 e0ed      	LDI  R30,LOW(13)
000449 93ea      	ST   -Y,R30
00044a e0a7      	LDI  R26,LOW(7)
00044b df02      	RCALL _rc522_write
                 ; 0001 007C     st = rc522_transceive(&cmd,1,back,&bits);
00044c b7ed      	IN   R30,SPL
00044d b7fe      	IN   R31,SPH
00044e 93fa      	ST   -Y,R31
00044f 93ea      	ST   -Y,R30
000450 931f      	PUSH R17
000451 e0e1      	LDI  R30,LOW(1)
000452 940e 07cf 	CALL SUBOPT_0x17
000454 b7ad      	IN   R26,SPL
000455 b7be      	IN   R27,SPH
000456 930f      	PUSH R16
000457 df52      	RCALL _rc522_transceive_G001
000458 910f      	POP  R16
000459 911f      	POP  R17
00045a 2f3e      	MOV  R19,R30
                 ; 0001 007D     rc522_write(BitFramingReg,0x00);
00045b e0ed      	LDI  R30,LOW(13)
00045c 940e 07cb 	CALL SUBOPT_0x16
                 ; 0001 007E     if(st!=MI_OK) return MI_NOTAGERR;
00045e 3030      	CPI  R19,0
00045f f011      	BREQ _0x2001C
000460 e0e1      	LDI  R30,LOW(1)
000461 c00e      	RJMP _0x20A0009
                 ; 0001 007F     if(bits!=16)  return MI_NOTAGERR;
                 _0x2001C:
000462 3100      	CPI  R16,16
000463 f011      	BREQ _0x2001D
000464 e0e1      	LDI  R30,LOW(1)
000465 c00a      	RJMP _0x20A0009
                 ; 0001 0080     ATQA[0]=back[0]; ATQA[1]=back[1];
                 _0x2001D:
000466 81ec      	LDD  R30,Y+4
000467 85a8      	LDD  R26,Y+8
000468 85b9      	LDD  R27,Y+8+1
000469 93ec      	ST   X,R30
00046a 81ed      	LDD  R30,Y+5
                +
00046b 85a8     +LDD R26 , Y + 8
00046c 85b9     +LDD R27 , Y + 8 + 1
00046d 9611     +ADIW R26 , 1
00046e 93ec     +ST X , R30
                 	__PUTB1SNS 8,1
                 ; 0001 0081     return MI_OK;
                 _0x20A000A:
00046f e0e0      	LDI  R30,LOW(0)
                 _0x20A0009:
000470 940e 081e 	CALL __LOADLOCR4
000472 962b      	ADIW R28,11
000473 9508      	RET
                 ; 0001 0082 }
                 ; .FEND
                 ;static uchar rc522_anticoll_level(uchar level_cmd, uchar *out5){
                 ; 0001 0083 static uchar rc522_anticoll_level(uchar level_cmd, uchar *out5){
                 _rc522_anticoll_level_G001:
                 ; .FSTART _rc522_anticoll_level_G001
                 ; 0001 0084     uchar cmd[2], back[10], bits, i, st;
                 ; 0001 0085     bits=0;
000474 93ba      	ST   -Y,R27
000475 93aa      	ST   -Y,R26
000476 972c      	SBIW R28,12
000477 940e 0819 	CALL __SAVELOCR4
                 ;	level_cmd -> Y+18
                 ;	*out5 -> Y+16
                 ;	cmd -> Y+14
                 ;	back -> Y+4
                 ;	bits -> R17
                 ;	i -> R16
                 ;	st -> R19
000479 e010      	LDI  R17,LOW(0)
                 ; 0001 0086     cmd[0]=level_cmd; cmd[1]=0x20;
00047a 89ea      	LDD  R30,Y+18
00047b 87ee      	STD  Y+14,R30
00047c e2e0      	LDI  R30,LOW(32)
00047d 87ef      	STD  Y+15,R30
                 ; 0001 0087     rc522_write(BitFramingReg,0x00);
00047e e0ed      	LDI  R30,LOW(13)
00047f 940e 07cb 	CALL SUBOPT_0x16
                 ; 0001 0088     rc522_write(CollReg,0x80);
000481 e0ee      	LDI  R30,LOW(14)
000482 93ea      	ST   -Y,R30
000483 e8a0      	LDI  R26,LOW(128)
000484 dec9      	RCALL _rc522_write
                 ; 0001 0089     st = rc522_transceive(cmd,2,back,&bits);
000485 01fe      	MOVW R30,R28
000486 963e      	ADIW R30,14
000487 93fa      	ST   -Y,R31
000488 93ea      	ST   -Y,R30
000489 e0e2      	LDI  R30,LOW(2)
00048a 940e 07cf 	CALL SUBOPT_0x17
00048c b7ad      	IN   R26,SPL
00048d b7be      	IN   R27,SPH
00048e 931f      	PUSH R17
00048f df1a      	RCALL _rc522_transceive_G001
000490 911f      	POP  R17
000491 2f3e      	MOV  R19,R30
                 ; 0001 008A     if(st!=MI_OK) return st;
000492 3030      	CPI  R19,0
000493 f009      	BREQ _0x2001E
000494 c011      	RJMP _0x20A0008
                 ; 0001 008B     if(bits!=40)  return MI_COMM_ERR;
                 _0x2001E:
000495 3218      	CPI  R17,40
000496 f011      	BREQ _0x2001F
000497 e0e3      	LDI  R30,LOW(3)
000498 c00d      	RJMP _0x20A0008
                 ; 0001 008C     for(i=0;i<5;i++) out5[i]=back[i];
                 _0x2001F:
000499 e000      	LDI  R16,LOW(0)
                 _0x20021:
00049a 3005      	CPI  R16,5
00049b f448      	BRSH _0x20022
00049c 2fe0      	MOV  R30,R16
00049d 89a8      	LDD  R26,Y+16
00049e 89b9      	LDD  R27,Y+16+1
00049f 940e 07d5 	CALL SUBOPT_0x18
0004a1 940e 07dc 	CALL SUBOPT_0x19
0004a3 5f0f      	SUBI R16,-1
0004a4 cff5      	RJMP _0x20021
                 _0x20022:
                 ; 0001 008D return 0;
0004a5 e0e0      	LDI  R30,LOW(0)
                 _0x20A0008:
0004a6 940e 081e 	CALL __LOADLOCR4
0004a8 9663      	ADIW R28,19
0004a9 9508      	RET
                 ; 0001 008E }
                 ; .FEND
                 ;uchar rc522_get_uid(uchar *uid){
                 ; 0001 008F uchar rc522_get_uid(uchar *uid){
                 _rc522_get_uid:
                 ; .FSTART _rc522_get_uid
                 ; 0001 0090     uchar b[5], bcc, i;
                 ; 0001 0091     if(rc522_anticoll_level(PICC_ANTICOLL_CL1,b)!=MI_OK) return 0;
0004aa 93ba      	ST   -Y,R27
0004ab 93aa      	ST   -Y,R26
0004ac 9725      	SBIW R28,5
0004ad 931a      	ST   -Y,R17
0004ae 930a      	ST   -Y,R16
                 ;	*uid -> Y+7
                 ;	b -> Y+2
                 ;	bcc -> R17
                 ;	i -> R16
0004af e9e3      	LDI  R30,LOW(147)
0004b0 93ea      	ST   -Y,R30
0004b1 01de      	MOVW R26,R28
0004b2 9613      	ADIW R26,3
0004b3 dfc0      	RCALL _rc522_anticoll_level_G001
0004b4 30e0      	CPI  R30,0
0004b5 f021      	BREQ _0x20023
0004b6 e0e0      	LDI  R30,LOW(0)
0004b7 8119      	LDD  R17,Y+1
0004b8 8108      	LDD  R16,Y+0
0004b9 c0b4      	RJMP _0x20A0006
                 ; 0001 0092     if(b[0]==0x88){
                 _0x20023:
0004ba 81aa      	LDD  R26,Y+2
0004bb 38a8      	CPI  R26,LOW(0x88)
0004bc f489      	BRNE _0x20024
                 ; 0001 0093         for(i=0;i<4;i++) uid[i]=b[i+1];
0004bd e000      	LDI  R16,LOW(0)
                 _0x20026:
0004be 3004      	CPI  R16,4
0004bf f450      	BRSH _0x20027
0004c0 2fe0      	MOV  R30,R16
0004c1 81af      	LDD  R26,Y+7
0004c2 85b8      	LDD  R27,Y+7+1
0004c3 940e 07d5 	CALL SUBOPT_0x18
0004c5 9631      	ADIW R30,1
0004c6 940e 07e4 	CALL SUBOPT_0x1A
0004c8 5f0f      	SUBI R16,-1
0004c9 cff4      	RJMP _0x20026
                 _0x20027:
                 ; 0001 0094 return 4;
0004ca e0e4      	LDI  R30,LOW(4)
0004cb 8119      	LDD  R17,Y+1
0004cc 8108      	LDD  R16,Y+0
0004cd c0a0      	RJMP _0x20A0006
                 ; 0001 0095     }else{
                 _0x20024:
                 ; 0001 0096         bcc=b[0]^b[1]^b[2]^b[3]; if(bcc!=b[4]) return 0;
0004ce 81eb      	LDD  R30,Y+3
0004cf 81aa      	LDD  R26,Y+2
0004d0 27ea      	EOR  R30,R26
0004d1 81ac      	LDD  R26,Y+4
0004d2 27ea      	EOR  R30,R26
0004d3 81ad      	LDD  R26,Y+5
0004d4 27ea      	EOR  R30,R26
0004d5 2f1e      	MOV  R17,R30
0004d6 81ee      	LDD  R30,Y+6
0004d7 17e1      	CP   R30,R17
0004d8 f021      	BREQ _0x20029
0004d9 e0e0      	LDI  R30,LOW(0)
0004da 8119      	LDD  R17,Y+1
0004db 8108      	LDD  R16,Y+0
0004dc c091      	RJMP _0x20A0006
                 ; 0001 0097         for(i=0;i<4;i++) uid[i]=b[i];
                 _0x20029:
0004dd e000      	LDI  R16,LOW(0)
                 _0x2002B:
0004de 3004      	CPI  R16,4
0004df f448      	BRSH _0x2002C
0004e0 2fe0      	MOV  R30,R16
0004e1 81af      	LDD  R26,Y+7
0004e2 85b8      	LDD  R27,Y+7+1
0004e3 940e 07d5 	CALL SUBOPT_0x18
0004e5 940e 07e4 	CALL SUBOPT_0x1A
0004e7 5f0f      	SUBI R16,-1
0004e8 cff5      	RJMP _0x2002B
                 _0x2002C:
                 ; 0001 0098 return 4;
0004e9 e0e4      	LDI  R30,LOW(4)
0004ea 8119      	LDD  R17,Y+1
0004eb 8108      	LDD  R16,Y+0
0004ec c081      	RJMP _0x20A0006
                 ; 0001 0099     }
                 ; 0001 009A }
                 ; .FEND
                 ;static uchar uid_bcc4(uchar *u4){ return (uchar)(u4[0]^u4[1]^u4[2]^u4[3]); }
                 ; 0001 009B static uchar uid_bcc4(uchar *u4){ return (uchar)(u4[0]^u4[1]^u4[2]^u4[3]); }
                 _uid_bcc4_G001:
                 ; .FSTART _uid_bcc4_G001
0004ed 93ba      	ST   -Y,R27
0004ee 93aa      	ST   -Y,R26
                 ;	*u4 -> Y+0
0004ef 81a8      	LD   R26,Y
0004f0 81b9      	LDD  R27,Y+1
0004f1 91ac      	LD   R26,X
0004f2 81e8      	LD   R30,Y
0004f3 81f9      	LDD  R31,Y+1
0004f4 81e1      	LDD  R30,Z+1
0004f5 27ae      	EOR  R26,R30
0004f6 81e8      	LD   R30,Y
0004f7 81f9      	LDD  R31,Y+1
0004f8 81e2      	LDD  R30,Z+2
0004f9 27ae      	EOR  R26,R30
0004fa 81e8      	LD   R30,Y
0004fb 81f9      	LDD  R31,Y+1
0004fc 81e3      	LDD  R30,Z+3
0004fd 27ea      	EOR  R30,R26
0004fe c187      	RJMP _0x20A0002
                 ; .FEND
                 ;static uchar rc522_select_level(uchar level_cmd, uchar *uid4, uchar *sak_out){
                 ; 0001 009C static uchar rc522_select_level(uchar level_cmd, uchar *uid4, uchar *sak_out){
                 _rc522_select_level_G001:
                 ; .FSTART _rc522_select_level_G001
                 ; 0001 009D     uchar f[9], crc[2], back[4], bits, bcc, st;
                 ; 0001 009E     bits=0;
0004ff 93ba      	ST   -Y,R27
000500 93aa      	ST   -Y,R26
000501 972f      	SBIW R28,15
000502 940e 0819 	CALL __SAVELOCR4
                 ;	level_cmd -> Y+23
                 ;	*uid4 -> Y+21
                 ;	*sak_out -> Y+19
                 ;	f -> Y+10
                 ;	crc -> Y+8
                 ;	back -> Y+4
                 ;	bits -> R17
                 ;	bcc -> R16
                 ;	st -> R19
000504 e010      	LDI  R17,LOW(0)
                 ; 0001 009F     rc522_write(BitFramingReg,0x00);
000505 e0ed      	LDI  R30,LOW(13)
000506 940e 07cb 	CALL SUBOPT_0x16
                 ; 0001 00A0     bcc = uid_bcc4(uid4);
000508 89ad      	LDD  R26,Y+21
000509 89be      	LDD  R27,Y+21+1
00050a dfe2      	RCALL _uid_bcc4_G001
00050b 2f0e      	MOV  R16,R30
                 ; 0001 00A1     f[0]=level_cmd; f[1]=0x70;
00050c 89ef      	LDD  R30,Y+23
00050d 87ea      	STD  Y+10,R30
00050e e7e0      	LDI  R30,LOW(112)
00050f 87eb      	STD  Y+11,R30
                 ; 0001 00A2     f[2]=uid4[0];   f[3]=uid4[1]; f[4]=uid4[2]; f[5]=uid4[3];
000510 89ad      	LDD  R26,Y+21
000511 89be      	LDD  R27,Y+21+1
000512 91ec      	LD   R30,X
000513 87ec      	STD  Y+12,R30
000514 89ed      	LDD  R30,Y+21
000515 89fe      	LDD  R31,Y+21+1
000516 81e1      	LDD  R30,Z+1
000517 87ed      	STD  Y+13,R30
000518 89ed      	LDD  R30,Y+21
000519 89fe      	LDD  R31,Y+21+1
00051a 81e2      	LDD  R30,Z+2
00051b 87ee      	STD  Y+14,R30
00051c 89ed      	LDD  R30,Y+21
00051d 89fe      	LDD  R31,Y+21+1
00051e 81e3      	LDD  R30,Z+3
00051f 87ef      	STD  Y+15,R30
                 ; 0001 00A3     f[6]=bcc;
000520 01fe      	MOVW R30,R28
000521 9670      	ADIW R30,16
000522 8300      	ST   Z,R16
                 ; 0001 00A4     rc522_calc_crc(f,7,crc); f[7]=crc[0]; f[8]=crc[1];
000523 01fe      	MOVW R30,R28
000524 963a      	ADIW R30,10
000525 93fa      	ST   -Y,R31
000526 93ea      	ST   -Y,R30
000527 e0e7      	LDI  R30,LOW(7)
000528 93ea      	ST   -Y,R30
000529 01de      	MOVW R26,R28
00052a 961b      	ADIW R26,11
00052b de55      	RCALL _rc522_calc_crc_G001
00052c 85e8      	LDD  R30,Y+8
00052d 8be9      	STD  Y+17,R30
00052e 85e9      	LDD  R30,Y+9
00052f 8bea      	STD  Y+18,R30
                 ; 0001 00A5     st = rc522_transceive(f,9,back,&bits);
000530 01fe      	MOVW R30,R28
000531 963a      	ADIW R30,10
000532 93fa      	ST   -Y,R31
000533 93ea      	ST   -Y,R30
000534 e0e9      	LDI  R30,LOW(9)
000535 940e 07cf 	CALL SUBOPT_0x17
000537 b7ad      	IN   R26,SPL
000538 b7be      	IN   R27,SPH
000539 931f      	PUSH R17
00053a de6f      	RCALL _rc522_transceive_G001
00053b 911f      	POP  R17
00053c 2f3e      	MOV  R19,R30
                 ; 0001 00A6     if(st!=MI_OK) return st;
00053d 3030      	CPI  R19,0
00053e f009      	BREQ _0x2002D
00053f c009      	RJMP _0x20A0007
                 ; 0001 00A7     if(bits!=24)  return MI_COMM_ERR;
                 _0x2002D:
000540 3118      	CPI  R17,24
000541 f011      	BREQ _0x2002E
000542 e0e3      	LDI  R30,LOW(3)
000543 c005      	RJMP _0x20A0007
                 ; 0001 00A8     *sak_out = back[0];
                 _0x2002E:
000544 81ec      	LDD  R30,Y+4
000545 89ab      	LDD  R26,Y+19
000546 89bc      	LDD  R27,Y+19+1
000547 93ec      	ST   X,R30
                 ; 0001 00A9     return MI_OK;
000548 e0e0      	LDI  R30,LOW(0)
                 _0x20A0007:
000549 940e 081e 	CALL __LOADLOCR4
00054b 9668      	ADIW R28,24
00054c 9508      	RET
                 ; 0001 00AA }
                 ; .FEND
                 ;uchar rc522_select(uchar *uid, uchar uid_len, uchar *sak){
                 ; 0001 00AB uchar rc522_select(uchar *uid, uchar uid_len, uchar *sak){
                 _rc522_select:
                 ; .FSTART _rc522_select
                 ; 0001 00AC     uchar uid4[4];
                 ; 0001 00AD     if(uid_len==4){
00054d 93ba      	ST   -Y,R27
00054e 93aa      	ST   -Y,R26
00054f 9724      	SBIW R28,4
                 ;	*uid -> Y+7
                 ;	uid_len -> Y+6
                 ;	*sak -> Y+4
                 ;	uid4 -> Y+0
000550 81ae      	LDD  R26,Y+6
000551 30a4      	CPI  R26,LOW(0x4)
000552 f4d1      	BRNE _0x2002F
                 ; 0001 00AE         uid4[0]=uid[0]; uid4[1]=uid[1]; uid4[2]=uid[2]; uid4[3]=uid[3];
000553 81af      	LDD  R26,Y+7
000554 85b8      	LDD  R27,Y+7+1
000555 91ec      	LD   R30,X
000556 83e8      	ST   Y,R30
000557 81ef      	LDD  R30,Y+7
000558 85f8      	LDD  R31,Y+7+1
000559 81e1      	LDD  R30,Z+1
00055a 83e9      	STD  Y+1,R30
00055b 81ef      	LDD  R30,Y+7
00055c 85f8      	LDD  R31,Y+7+1
00055d 81e2      	LDD  R30,Z+2
00055e 83ea      	STD  Y+2,R30
00055f 81ef      	LDD  R30,Y+7
000560 85f8      	LDD  R31,Y+7+1
000561 81e3      	LDD  R30,Z+3
000562 83eb      	STD  Y+3,R30
                 ; 0001 00AF         return rc522_select_level(PICC_SELECT_CL1, uid4, sak);
000563 e9e3      	LDI  R30,LOW(147)
000564 93ea      	ST   -Y,R30
000565 01fe      	MOVW R30,R28
000566 9631      	ADIW R30,1
000567 93fa      	ST   -Y,R31
000568 93ea      	ST   -Y,R30
000569 81af      	LDD  R26,Y+7
00056a 85b8      	LDD  R27,Y+7+1
00056b df93      	RCALL _rc522_select_level_G001
00056c c001      	RJMP _0x20A0006
                 ; 0001 00B0     }
                 ; 0001 00B1     return MI_COMM_ERR;
                 _0x2002F:
00056d e0e3      	LDI  R30,LOW(3)
                 _0x20A0006:
00056e 9629      	ADIW R28,9
00056f 9508      	RET
                 ; 0001 00B2 }
                 ; .FEND
                 ;
                 ;/* ===== Classic auth/read/write ===== */
                 ;uchar mifare_auth_keyA(uchar blockAddr, uchar *uid4){
                 ; 0001 00B5 uchar mifare_auth_keyA(uchar blockAddr, uchar *uid4){
                 _mifare_auth_keyA:
                 ; .FSTART _mifare_auth_keyA
                 ; 0001 00B6     uchar i;
                 ; 0001 00B7     rc522_write(CommandReg, PCD_Idle);
000570 940e 07b8 	CALL SUBOPT_0x14
                 ;	blockAddr -> Y+3
                 ;	*uid4 -> Y+1
                 ;	i -> R17
                 ; 0001 00B8     set_bit_mask(FIFOLevelReg,0x80);
                 ; 0001 00B9     rc522_write(FIFODataReg, MF_AUTH_KEY_A);
000572 e0e9      	LDI  R30,LOW(9)
000573 93ea      	ST   -Y,R30
000574 e6a0      	LDI  R26,LOW(96)
000575 ddd8      	RCALL _rc522_write
                 ; 0001 00BA     rc522_write(FIFODataReg, blockAddr);
000576 e0e9      	LDI  R30,LOW(9)
000577 93ea      	ST   -Y,R30
000578 81ac      	LDD  R26,Y+4
000579 ddd4      	RCALL _rc522_write
                 ; 0001 00BB     for(i=0;i<6;i++) rc522_write(FIFODataReg, keyA[i]);
00057a e010      	LDI  R17,LOW(0)
                 _0x20031:
00057b 3016      	CPI  R17,6
00057c f450      	BRSH _0x20032
00057d e0e9      	LDI  R30,LOW(9)
00057e 93ea      	ST   -Y,R30
00057f 2fe1      	MOV  R30,R17
000580 e0f0      	LDI  R31,0
000581 58ef      	SUBI R30,LOW(-_keyA_G001)
000582 4ffd      	SBCI R31,HIGH(-_keyA_G001)
000583 81a0      	LD   R26,Z
000584 ddc9      	RCALL _rc522_write
000585 5f1f      	SUBI R17,-1
000586 cff4      	RJMP _0x20031
                 _0x20032:
                 ; 0001 00BC for(i=0;i<4;i++) rc522_write(0x09, uid4[i]);
000587 e010      	LDI  R17,LOW(0)
                 _0x20034:
000588 3014      	CPI  R17,4
000589 f438      	BRSH _0x20035
00058a e0e9      	LDI  R30,LOW(9)
00058b 93ea      	ST   -Y,R30
00058c 940e 074b 	CALL SUBOPT_0x5
00058e ddbf      	RCALL _rc522_write
00058f 5f1f      	SUBI R17,-1
000590 cff7      	RJMP _0x20034
                 _0x20035:
                 ; 0001 00BD rc522_write(0x01, 0x0E);
000591 e0e1      	LDI  R30,LOW(1)
000592 93ea      	ST   -Y,R30
000593 e0ae      	LDI  R26,LOW(14)
000594 ddb9      	RCALL _rc522_write
                 ; 0001 00BE     for(i=0;i<200;i++){ if(rc522_read(Status2Reg) & 0x08) return MI_OK; delay_ms(1); }
000595 e010      	LDI  R17,LOW(0)
                 _0x20037:
000596 3c18      	CPI  R17,200
000597 f460      	BRSH _0x20038
000598 e0a8      	LDI  R26,LOW(8)
000599 ddc2      	RCALL _rc522_read
00059a 70e8      	ANDI R30,LOW(0x8)
00059b f011      	BREQ _0x20039
00059c e0e0      	LDI  R30,LOW(0)
00059d c007      	RJMP _0x20A0005
                 _0x20039:
00059e e0a1      	LDI  R26,LOW(1)
00059f e0b0      	LDI  R27,0
0005a0 940e 0801 	CALL _delay_ms
0005a2 5f1f      	SUBI R17,-1
0005a3 cff2      	RJMP _0x20037
                 _0x20038:
                 ; 0001 00BF     return MI_AUTH_ERR;
0005a4 e0e6      	LDI  R30,LOW(6)
                 _0x20A0005:
0005a5 8118      	LDD  R17,Y+0
0005a6 9624      	ADIW R28,4
0005a7 9508      	RET
                 ; 0001 00C0 }
                 ; .FEND
                 ;void mifare_stop_crypto(void){
                 ; 0001 00C1 void mifare_stop_crypto(void){
                 _mifare_stop_crypto:
                 ; .FSTART _mifare_stop_crypto
                 ; 0001 00C2     clr_bit_mask(Status2Reg,0x08);
0005a8 e0e8      	LDI  R30,LOW(8)
0005a9 93ea      	ST   -Y,R30
0005aa e0a8      	LDI  R26,LOW(8)
0005ab ddcb      	RCALL _clr_bit_mask
                 ; 0001 00C3     rc522_write(CommandReg, PCD_Idle);
0005ac e0e1      	LDI  R30,LOW(1)
0005ad 940e 07cb 	CALL SUBOPT_0x16
                 ; 0001 00C4 }
0005af 9508      	RET
                 ; .FEND
                 ;uchar mifare_read_block(uchar blockAddr, uchar *out16){
                 ; 0001 00C5 uchar mifare_read_block(uchar blockAddr, uchar *out16){
                 _mifare_read_block:
                 ; .FSTART _mifare_read_block
                 ; 0001 00C6     uchar cmd[4], crc[2], back[32], bits, i, st;
                 ; 0001 00C7     bits=0;
0005b0 93ba      	ST   -Y,R27
0005b1 93aa      	ST   -Y,R26
0005b2 97a6      	SBIW R28,38
0005b3 940e 0819 	CALL __SAVELOCR4
                 ;	blockAddr -> Y+44
                 ;	*out16 -> Y+42
                 ;	cmd -> Y+38
                 ;	crc -> Y+36
                 ;	back -> Y+4
                 ;	bits -> R17
                 ;	i -> R16
                 ;	st -> R19
0005b5 e010      	LDI  R17,LOW(0)
                 ; 0001 00C8     cmd[0]=MF_READ; cmd[1]=blockAddr;
0005b6 e3e0      	LDI  R30,LOW(48)
0005b7 a3ee      	STD  Y+38,R30
0005b8 a5ec      	LDD  R30,Y+44
0005b9 a3ef      	STD  Y+39,R30
                 ; 0001 00C9     rc522_calc_crc(cmd,2,crc); cmd[2]=crc[0]; cmd[3]=crc[1];
0005ba 01fe      	MOVW R30,R28
0005bb 96b6      	ADIW R30,38
0005bc 93fa      	ST   -Y,R31
0005bd 93ea      	ST   -Y,R30
0005be e0e2      	LDI  R30,LOW(2)
0005bf 93ea      	ST   -Y,R30
0005c0 01de      	MOVW R26,R28
0005c1 9697      	ADIW R26,39
0005c2 ddbe      	RCALL _rc522_calc_crc_G001
0005c3 a1ec      	LDD  R30,Y+36
0005c4 a7e8      	STD  Y+40,R30
0005c5 a1ed      	LDD  R30,Y+37
0005c6 a7e9      	STD  Y+41,R30
                 ; 0001 00CA     st = rc522_transceive(cmd,4,back,&bits);
0005c7 01fe      	MOVW R30,R28
0005c8 96b6      	ADIW R30,38
0005c9 93fa      	ST   -Y,R31
0005ca 93ea      	ST   -Y,R30
0005cb e0e4      	LDI  R30,LOW(4)
0005cc 940e 07cf 	CALL SUBOPT_0x17
0005ce b7ad      	IN   R26,SPL
0005cf b7be      	IN   R27,SPH
0005d0 931f      	PUSH R17
0005d1 ddd8      	RCALL _rc522_transceive_G001
0005d2 911f      	POP  R17
0005d3 2f3e      	MOV  R19,R30
                 ; 0001 00CB     if(st!=MI_OK) return st;
0005d4 3030      	CPI  R19,0
0005d5 f009      	BREQ _0x2003A
0005d6 c011      	RJMP _0x20A0004
                 ; 0001 00CC     if(bits<16*8)  return MI_COMM_ERR;
                 _0x2003A:
0005d7 3810      	CPI  R17,128
0005d8 f410      	BRSH _0x2003B
0005d9 e0e3      	LDI  R30,LOW(3)
0005da c00d      	RJMP _0x20A0004
                 ; 0001 00CD     for(i=0;i<16;i++) out16[i]=back[i];
                 _0x2003B:
0005db e000      	LDI  R16,LOW(0)
                 _0x2003D:
0005dc 3100      	CPI  R16,16
0005dd f448      	BRSH _0x2003E
0005de 2fe0      	MOV  R30,R16
0005df a5aa      	LDD  R26,Y+42
0005e0 a5bb      	LDD  R27,Y+42+1
0005e1 940e 07d5 	CALL SUBOPT_0x18
0005e3 940e 07dc 	CALL SUBOPT_0x19
0005e5 5f0f      	SUBI R16,-1
0005e6 cff5      	RJMP _0x2003D
                 _0x2003E:
                 ; 0001 00CE return 0;
0005e7 e0e0      	LDI  R30,LOW(0)
                 _0x20A0004:
0005e8 940e 081e 	CALL __LOADLOCR4
0005ea 96ad      	ADIW R28,45
0005eb 9508      	RET
                 ; 0001 00CF }
                 ; .FEND
                 ;uchar mifare_write_block(uchar blockAddr, uchar *data16){
                 ; 0001 00D0 uchar mifare_write_block(uchar blockAddr, uchar *data16){
                 _mifare_write_block:
                 ; .FSTART _mifare_write_block
                 ; 0001 00D1     uchar cmd[4], crc[2], ack[8], bits, frame[18], i, st;
                 ; 0001 00D2     bits=0;
0005ec 93ba      	ST   -Y,R27
0005ed 93aa      	ST   -Y,R26
0005ee 97a0      	SBIW R28,32
0005ef 940e 0819 	CALL __SAVELOCR4
                 ;	blockAddr -> Y+38
                 ;	*data16 -> Y+36
                 ;	cmd -> Y+32
                 ;	crc -> Y+30
                 ;	ack -> Y+22
                 ;	bits -> R17
                 ;	frame -> Y+4
                 ;	i -> R16
                 ;	st -> R19
0005f1 e010      	LDI  R17,LOW(0)
                 ; 0001 00D3     cmd[0]=MF_WRITE; cmd[1]=blockAddr;
0005f2 eae0      	LDI  R30,LOW(160)
0005f3 a3e8      	STD  Y+32,R30
0005f4 a1ee      	LDD  R30,Y+38
0005f5 a3e9      	STD  Y+33,R30
                 ; 0001 00D4     rc522_calc_crc(cmd,2,crc); cmd[2]=crc[0]; cmd[3]=crc[1];
0005f6 01fe      	MOVW R30,R28
0005f7 96b0      	ADIW R30,32
0005f8 93fa      	ST   -Y,R31
0005f9 93ea      	ST   -Y,R30
0005fa e0e2      	LDI  R30,LOW(2)
0005fb 940e 07ec 	CALL SUBOPT_0x1B
0005fd a3ea      	STD  Y+34,R30
0005fe 8def      	LDD  R30,Y+31
0005ff a3eb      	STD  Y+35,R30
                 ; 0001 00D5     st = rc522_transceive(cmd,4,ack,&bits);
000600 01fe      	MOVW R30,R28
000601 96b0      	ADIW R30,32
000602 93fa      	ST   -Y,R31
000603 93ea      	ST   -Y,R30
000604 e0e4      	LDI  R30,LOW(4)
000605 93ea      	ST   -Y,R30
000606 01fe      	MOVW R30,R28
000607 9679      	ADIW R30,25
000608 93fa      	ST   -Y,R31
000609 93ea      	ST   -Y,R30
00060a b7ad      	IN   R26,SPL
00060b b7be      	IN   R27,SPH
00060c 931f      	PUSH R17
00060d dd9c      	RCALL _rc522_transceive_G001
00060e 911f      	POP  R17
00060f 2f3e      	MOV  R19,R30
                 ; 0001 00D6     if(st!=MI_OK) return st;
000610 3030      	CPI  R19,0
000611 f009      	BREQ _0x2003F
000612 c042      	RJMP _0x20A0003
                 ; 0001 00D7     if((bits!=4) || ((ack[0]&0x0F)!=0x0A)) return MI_COMM_ERR;
                 _0x2003F:
000613 3014      	CPI  R17,4
000614 f421      	BRNE _0x20041
000615 89ee      	LDD  R30,Y+22
000616 70ef      	ANDI R30,LOW(0xF)
000617 30ea      	CPI  R30,LOW(0xA)
000618 f011      	BREQ _0x20040
                 _0x20041:
000619 e0e3      	LDI  R30,LOW(3)
00061a c03a      	RJMP _0x20A0003
                 ; 0001 00D8     for(i=0;i<16;i++) frame[i]=data16[i];
                 _0x20040:
00061b e000      	LDI  R16,LOW(0)
                 _0x20044:
00061c 3100      	CPI  R16,16
00061d f488      	BRSH _0x20045
00061e 2fe0      	MOV  R30,R16
00061f e0f0      	LDI  R31,0
000620 01de      	MOVW R26,R28
000621 9614      	ADIW R26,4
000622 0fea      	ADD  R30,R26
000623 1ffb      	ADC  R31,R27
000624 010f      	MOVW R0,R30
000625 a1ac      	LDD  R26,Y+36
000626 a1bd      	LDD  R27,Y+36+1
000627 27ee      	CLR  R30
000628 0fa0      	ADD  R26,R16
000629 1fbe      	ADC  R27,R30
00062a 91ec      	LD   R30,X
00062b 01d0      	MOVW R26,R0
00062c 93ec      	ST   X,R30
00062d 5f0f      	SUBI R16,-1
00062e cfed      	RJMP _0x20044
                 _0x20045:
                 ; 0001 00D9 rc522_calc_crc(data16,16,crc); frame[16]=crc[0]; frame[17]=crc[1];
00062f a1ec      	LDD  R30,Y+36
000630 a1fd      	LDD  R31,Y+36+1
000631 93fa      	ST   -Y,R31
000632 93ea      	ST   -Y,R30
000633 e1e0      	LDI  R30,LOW(16)
000634 940e 07ec 	CALL SUBOPT_0x1B
000636 8bec      	STD  Y+20,R30
000637 8def      	LDD  R30,Y+31
000638 8bed      	STD  Y+21,R30
                 ; 0001 00DA     st = rc522_transceive(frame,18,ack,&bits);
000639 01fe      	MOVW R30,R28
00063a 9634      	ADIW R30,4
00063b 93fa      	ST   -Y,R31
00063c 93ea      	ST   -Y,R30
00063d e1e2      	LDI  R30,LOW(18)
00063e 93ea      	ST   -Y,R30
00063f 01fe      	MOVW R30,R28
000640 9679      	ADIW R30,25
000641 93fa      	ST   -Y,R31
000642 93ea      	ST   -Y,R30
000643 b7ad      	IN   R26,SPL
000644 b7be      	IN   R27,SPH
000645 931f      	PUSH R17
000646 dd63      	RCALL _rc522_transceive_G001
000647 911f      	POP  R17
000648 2f3e      	MOV  R19,R30
                 ; 0001 00DB     if(st!=MI_OK) return st;
000649 3030      	CPI  R19,0
00064a f009      	BREQ _0x20046
00064b c009      	RJMP _0x20A0003
                 ; 0001 00DC     if((bits!=4) || ((ack[0]&0x0F)!=0x0A)) return MI_COMM_ERR;
                 _0x20046:
00064c 3014      	CPI  R17,4
00064d f421      	BRNE _0x20048
00064e 89ee      	LDD  R30,Y+22
00064f 70ef      	ANDI R30,LOW(0xF)
000650 30ea      	CPI  R30,LOW(0xA)
000651 f011      	BREQ _0x20047
                 _0x20048:
000652 e0e3      	LDI  R30,LOW(3)
000653 c001      	RJMP _0x20A0003
                 ; 0001 00DD     return MI_OK;
                 _0x20047:
000654 e0e0      	LDI  R30,LOW(0)
                 _0x20A0003:
000655 940e 081e 	CALL __LOADLOCR4
000657 96a7      	ADIW R28,39
000658 9508      	RET
                 ; 0001 00DE }
                 ; .FEND
                 	#ifndef __SLEEP_DEFINED__
                 	#endif
                 
                 	.DSEG
                 
                 	.CSEG
                 __lcd_write_nibble_G100:
                 ; .FSTART __lcd_write_nibble_G100
000659 93aa      	ST   -Y,R26
00065a b3e5      	IN   R30,0x15
00065b 70ef      	ANDI R30,LOW(0xF)
00065c 2fae      	MOV  R26,R30
00065d 81e8      	LD   R30,Y
00065e 7fe0      	ANDI R30,LOW(0xF0)
00065f 2bea      	OR   R30,R26
000660 bbe5      	OUT  0x15,R30
                +
000661 e08d     +LDI R24 , LOW ( 13 )
                +__DELAY_USB_LOOP :
000662 958a     +DEC R24
000663 f7f1     +BRNE __DELAY_USB_LOOP
                 	__DELAY_USB 13
000664 9aaa      	SBI  0x15,2
                +
000665 e08d     +LDI R24 , LOW ( 13 )
                +__DELAY_USB_LOOP :
000666 958a     +DEC R24
000667 f7f1     +BRNE __DELAY_USB_LOOP
                 	__DELAY_USB 13
000668 98aa      	CBI  0x15,2
                +
000669 e08d     +LDI R24 , LOW ( 13 )
                +__DELAY_USB_LOOP :
00066a 958a     +DEC R24
00066b f7f1     +BRNE __DELAY_USB_LOOP
                 	__DELAY_USB 13
00066c 940c 0724 	JMP  _0x20A0001
                 ; .FEND
                 __lcd_write_data:
                 ; .FSTART __lcd_write_data
00066e 93aa      	ST   -Y,R26
00066f 81a8      	LD   R26,Y
000670 dfe8      	RCALL __lcd_write_nibble_G100
000671 81e8          ld    r30,y
000672 95e2          swap  r30
000673 83e8          st    y,r30
000674 81a8      	LD   R26,Y
000675 dfe3      	RCALL __lcd_write_nibble_G100
                +
000676 e885     +LDI R24 , LOW ( 133 )
                +__DELAY_USB_LOOP :
000677 958a     +DEC R24
000678 f7f1     +BRNE __DELAY_USB_LOOP
                 	__DELAY_USB 133
000679 940c 0724 	JMP  _0x20A0001
                 ; .FEND
                 _lcd_gotoxy:
                 ; .FSTART _lcd_gotoxy
00067b 93aa      	ST   -Y,R26
00067c 81e8      	LD   R30,Y
00067d e0f0      	LDI  R31,0
00067e 58e9      	SUBI R30,LOW(-__base_y_G100)
00067f 4ffd      	SBCI R31,HIGH(-__base_y_G100)
000680 81e0      	LD   R30,Z
000681 81a9      	LDD  R26,Y+1
000682 0fae      	ADD  R26,R30
000683 dfea      	RCALL __lcd_write_data
000684 8059      	LDD  R5,Y+1
000685 8048      	LDD  R4,Y+0
                 _0x20A0002:
000686 9622      	ADIW R28,2
000687 9508      	RET
                 ; .FEND
                 _lcd_clear:
                 ; .FSTART _lcd_clear
000688 e0a2      	LDI  R26,LOW(2)
000689 940e 07f3 	CALL SUBOPT_0x1C
00068b e0ac      	LDI  R26,LOW(12)
00068c dfe1      	RCALL __lcd_write_data
00068d e0a1      	LDI  R26,LOW(1)
00068e 940e 07f3 	CALL SUBOPT_0x1C
000690 e0e0      	LDI  R30,LOW(0)
000691 2e4e      	MOV  R4,R30
000692 2e5e      	MOV  R5,R30
000693 9508      	RET
                 ; .FEND
                 _lcd_putchar:
                 ; .FSTART _lcd_putchar
000694 93aa      	ST   -Y,R26
000695 81a8      	LD   R26,Y
000696 30aa      	CPI  R26,LOW(0xA)
000697 f011      	BREQ _0x2000005
000698 1457      	CP   R5,R7
000699 f050      	BRLO _0x2000004
                 _0x2000005:
00069a e0e0      	LDI  R30,LOW(0)
00069b 93ea      	ST   -Y,R30
00069c 9443      	INC  R4
00069d 2da4      	MOV  R26,R4
00069e dfdc      	RCALL _lcd_gotoxy
00069f 81a8      	LD   R26,Y
0006a0 30aa      	CPI  R26,LOW(0xA)
0006a1 f411      	BRNE _0x2000007
0006a2 940c 0724 	JMP  _0x20A0001
                 _0x2000007:
                 _0x2000004:
0006a4 9453      	INC  R5
0006a5 9aa8      	SBI  0x15,0
0006a6 81a8      	LD   R26,Y
0006a7 dfc6      	RCALL __lcd_write_data
0006a8 98a8      	CBI  0x15,0
0006a9 940c 0724 	JMP  _0x20A0001
                 ; .FEND
                 _lcd_putsf:
                 ; .FSTART _lcd_putsf
0006ab 93ba      	ST   -Y,R27
0006ac 93aa      	ST   -Y,R26
0006ad 931a      	ST   -Y,R17
                 _0x200000B:
0006ae 81e9      	LDD  R30,Y+1
0006af 81fa      	LDD  R31,Y+1+1
0006b0 9631      	ADIW R30,1
0006b1 83e9      	STD  Y+1,R30
0006b2 83fa      	STD  Y+1+1,R31
0006b3 9731      	SBIW R30,1
0006b4 91e4      	LPM  R30,Z
0006b5 2f1e      	MOV  R17,R30
0006b6 30e0      	CPI  R30,0
0006b7 f019      	BREQ _0x200000D
0006b8 2fa1      	MOV  R26,R17
0006b9 dfda      	RCALL _lcd_putchar
0006ba cff3      	RJMP _0x200000B
                 _0x200000D:
0006bb 8118      	LDD  R17,Y+0
0006bc 9623      	ADIW R28,3
0006bd 9508      	RET
                 ; .FEND
                 _lcd_init:
                 ; .FSTART _lcd_init
0006be 93aa      	ST   -Y,R26
0006bf b3e4      	IN   R30,0x14
0006c0 6fe0      	ORI  R30,LOW(0xF0)
0006c1 bbe4      	OUT  0x14,R30
0006c2 9aa2      	SBI  0x14,2
0006c3 9aa0      	SBI  0x14,0
0006c4 9aa1      	SBI  0x14,1
0006c5 98aa      	CBI  0x15,2
0006c6 98a8      	CBI  0x15,0
0006c7 98a9      	CBI  0x15,1
0006c8 8078      	LDD  R7,Y+0
0006c9 81e8      	LD   R30,Y
0006ca 58e0      	SUBI R30,-LOW(128)
                +
0006cb 93e0 0279+STS __base_y_G100 + ( 2 ) , R30
                 	__PUTB1MN __base_y_G100,2
0006cd 81e8      	LD   R30,Y
0006ce 54e0      	SUBI R30,-LOW(192)
                +
0006cf 93e0 027a+STS __base_y_G100 + ( 3 ) , R30
                 	__PUTB1MN __base_y_G100,3
0006d1 e1a4      	LDI  R26,LOW(20)
0006d2 e0b0      	LDI  R27,0
0006d3 940e 0801 	CALL _delay_ms
0006d5 940e 07f9 	CALL SUBOPT_0x1D
0006d7 940e 07f9 	CALL SUBOPT_0x1D
0006d9 940e 07f9 	CALL SUBOPT_0x1D
0006db e2a0      	LDI  R26,LOW(32)
0006dc df7c      	RCALL __lcd_write_nibble_G100
                +
0006dd ec88     +LDI R24 , LOW ( 200 )
0006de e090     +LDI R25 , HIGH ( 200 )
                +__DELAY_USW_LOOP :
0006df 9701     +SBIW R24 , 1
0006e0 f7f1     +BRNE __DELAY_USW_LOOP
                 	__DELAY_USW 200
0006e1 e2a8      	LDI  R26,LOW(40)
0006e2 df8b      	RCALL __lcd_write_data
0006e3 e0a4      	LDI  R26,LOW(4)
0006e4 df89      	RCALL __lcd_write_data
0006e5 e8a5      	LDI  R26,LOW(133)
0006e6 df87      	RCALL __lcd_write_data
0006e7 e0a6      	LDI  R26,LOW(6)
0006e8 df85      	RCALL __lcd_write_data
0006e9 df9e      	RCALL _lcd_clear
0006ea 940c 0724 	JMP  _0x20A0001
                 ; .FEND
                 
                 	.CSEG
                 _memcmp:
                 ; .FSTART _memcmp
0006ec 93ba      	ST   -Y,R27
0006ed 93aa      	ST   -Y,R26
0006ee 2766          clr  r22
0006ef 2777          clr  r23
0006f0 9189          ld   r24,y+
0006f1 9199          ld   r25,y+
0006f2 91e9          ld   r30,y+
0006f3 91f9          ld   r31,y+
0006f4 91a9          ld   r26,y+
0006f5 91b9          ld   r27,y+
                 memcmp0:
0006f6 9600          adiw r24,0
0006f7 f029          breq memcmp1
0006f8 9701          sbiw r24,1
0006f9 916d          ld   r22,x+
0006fa 9171          ld   r23,z+
0006fb 1767          cp   r22,r23
0006fc f3c9          breq memcmp0
                 memcmp1:
0006fd 1b67          sub  r22,r23
0006fe f410          brcc memcmp2
0006ff efef          ldi  r30,-1
000700 9508          ret
                 memcmp2:
000701 e0e0          ldi  r30,0
000702 f009          breq memcmp3
000703 95e3          inc  r30
                 memcmp3:
000704 9508          ret
                 ; .FEND
                 _strncmp:
                 ; .FSTART _strncmp
000705 93aa      	ST   -Y,R26
000706 2766          clr  r22
000707 2777          clr  r23
000708 9189          ld   r24,y+
000709 91e9          ld   r30,y+
00070a 91f9          ld   r31,y+
00070b 91a9          ld   r26,y+
00070c 91b9          ld   r27,y+
                 strncmp0:
00070d 2388          tst  r24
00070e f049          breq strncmp1
00070f 958a          dec  r24
000710 916d          ld   r22,x+
000711 9171          ld   r23,z+
000712 1767          cp   r22,r23
000713 f421          brne strncmp1
000714 2366          tst  r22
000715 f7b9          brne strncmp0
                 strncmp3:
000716 27ee          clr  r30
000717 9508          ret
                 strncmp1:
000718 1b67          sub  r22,r23
000719 f3e1          breq strncmp3
00071a e0e1          ldi  r30,1
00071b f408          brcc strncmp2
00071c 50e2          subi r30,2
                 strncmp2:
00071d 9508          ret
                 ; .FEND
                 	#ifndef __SLEEP_DEFINED__
                 	#endif
                 
                 	.CSEG
                 	#ifndef __SLEEP_DEFINED__
                 	#endif
                 
                 	.CSEG
                 _spi:
                 ; .FSTART _spi
00071e 93aa      	ST   -Y,R26
00071f 81e8      	LD   R30,Y
000720 b9ef      	OUT  0xF,R30
                 _0x2060003:
000721 9b77      	SBIS 0xE,7
000722 cffe      	RJMP _0x2060003
000723 b1ef      	IN   R30,0xF
                 _0x20A0001:
000724 9621      	ADIW R28,1
000725 9508      	RET
                 ; .FEND
                 
                 	.CSEG
                 
                 	.DSEG
                 _password_G000:
000260           	.BYTE 0x9
                 _menu_list_G000:
000269           	.BYTE 0x2
                 _write_menu_G000:
00026b           	.BYTE 0x2
                 _read_selected_G000:
00026d           	.BYTE 0x1
                 _write_selected_G000:
00026e           	.BYTE 0x1
                 _screen_G000:
00026f           	.BYTE 0x2
                 _keyA_G001:
000271           	.BYTE 0x6
                 __base_y_G100:
000277           	.BYTE 0x4
                 
                 	.CSEG
                 ;OPTIMIZER ADDED SUBROUTINE, CALLED 2 TIMES, CODE SIZE REDUCTION:6 WORDS
                 SUBOPT_0x0:
000726 93aa      	ST   -Y,R26
000727 93ba      	ST   -Y,R27
000728 93ea      	ST   -Y,R30
000729 93fa      	ST   -Y,R31
00072a b7ef      	IN   R30,SREG
00072b 93ea      	ST   -Y,R30
00072c 91a0 026f 	LDS  R26,_screen_G000
00072e 91b0 0270 	LDS  R27,_screen_G000+1
000730 9711      	SBIW R26,1
000731 9508      	RET
                 
                 ;OPTIMIZER ADDED SUBROUTINE, CALLED 3 TIMES, CODE SIZE REDUCTION:1 WORDS
                 SUBOPT_0x1:
000732 91e0 0269 	LDS  R30,_menu_list_G000
000734 91f0 026a 	LDS  R31,_menu_list_G000+1
000736 9508      	RET
                 
                 ;OPTIMIZER ADDED SUBROUTINE, CALLED 3 TIMES, CODE SIZE REDUCTION:3 WORDS
                 SUBOPT_0x2:
000737 91a0 026f 	LDS  R26,_screen_G000
000739 91b0 0270 	LDS  R27,_screen_G000+1
00073b 9712      	SBIW R26,2
00073c 9508      	RET
                 
                 ;OPTIMIZER ADDED SUBROUTINE, CALLED 6 TIMES, CODE SIZE REDUCTION:22 WORDS
                 SUBOPT_0x3:
00073d 940e 0688 	CALL _lcd_clear
00073f e0e0      	LDI  R30,LOW(0)
000740 93ea      	ST   -Y,R30
000741 e0a0      	LDI  R26,LOW(0)
000742 940c 067b 	JMP  _lcd_gotoxy
                 
                 ;OPTIMIZER ADDED SUBROUTINE, CALLED 9 TIMES, CODE SIZE REDUCTION:37 WORDS
                 SUBOPT_0x4:
000744 940e 06ab 	CALL _lcd_putsf
000746 e0e0      	LDI  R30,LOW(0)
000747 93ea      	ST   -Y,R30
000748 e0a1      	LDI  R26,LOW(1)
000749 940c 067b 	JMP  _lcd_gotoxy
                 
                 ;OPTIMIZER ADDED SUBROUTINE, CALLED 2 TIMES, CODE SIZE REDUCTION:1 WORDS
                 SUBOPT_0x5:
00074b 81aa      	LDD  R26,Y+2
00074c 81bb      	LDD  R27,Y+2+1
00074d 27ee      	CLR  R30
00074e 0fa1      	ADD  R26,R17
00074f 1fbe      	ADC  R27,R30
000750 91ac      	LD   R26,X
000751 9508      	RET
                 
                 ;OPTIMIZER ADDED SUBROUTINE, CALLED 4 TIMES, CODE SIZE REDUCTION:6 WORDS
                 SUBOPT_0x6:
000752 e0e0      	LDI  R30,LOW(0)
000753 93ea      	ST   -Y,R30
000754 e0a0      	LDI  R26,LOW(0)
000755 940c 067b 	JMP  _lcd_gotoxy
                 
                 ;OPTIMIZER ADDED SUBROUTINE, CALLED 2 TIMES, CODE SIZE REDUCTION:3 WORDS
                 SUBOPT_0x7:
000757 93ea      	ST   -Y,R30
000758 01de      	MOVW R26,R28
000759 96d4      	ADIW R26,52
00075a 940e 0441 	CALL _rc522_request
00075c 83e9      	STD  Y+1,R30
00075d 30e0      	CPI  R30,0
00075e 9508      	RET
                 
                 ;OPTIMIZER ADDED SUBROUTINE, CALLED 6 TIMES, CODE SIZE REDUCTION:7 WORDS
                 SUBOPT_0x8:
00075f e7a8      	LDI  R26,LOW(120)
000760 e0b0      	LDI  R27,0
000761 940c 0801 	JMP  _delay_ms
                 
                 ;OPTIMIZER ADDED SUBROUTINE, CALLED 2 TIMES, CODE SIZE REDUCTION:3 WORDS
                 SUBOPT_0x9:
000763 940e 015c 	CALL _show_error_G000
000765 efa4      	LDI  R26,LOW(500)
000766 e0b1      	LDI  R27,HIGH(500)
000767 940e 0801 	CALL _delay_ms
000769 96ef      	ADIW R28,63
00076a 9621      	ADIW R28,1
00076b 9508      	RET
                 
                 ;OPTIMIZER ADDED SUBROUTINE, CALLED 2 TIMES, CODE SIZE REDUCTION:5 WORDS
                 SUBOPT_0xA:
00076c 940e 015c 	CALL _show_error_G000
00076e ebac      	LDI  R26,LOW(700)
00076f e0b2      	LDI  R27,HIGH(700)
000770 940e 0801 	CALL _delay_ms
000772 940e 05a8 	CALL _mifare_stop_crypto
000774 96ef      	ADIW R28,63
000775 9621      	ADIW R28,1
000776 9508      	RET
                 
                 ;OPTIMIZER ADDED SUBROUTINE, CALLED 4 TIMES, CODE SIZE REDUCTION:9 WORDS
                 SUBOPT_0xB:
000777 81eb      	LDD  R30,Y+3
000778 e0f0      	LDI  R31,0
000779 01de      	MOVW R26,R28
00077a 9614      	ADIW R26,4
00077b 0fae      	ADD  R26,R30
00077c 1fbf      	ADC  R27,R31
00077d 9508      	RET
                 
                 ;OPTIMIZER ADDED SUBROUTINE, CALLED 2 TIMES, CODE SIZE REDUCTION:1 WORDS
                 SUBOPT_0xC:
00077e 81eb      	LDD  R30,Y+3
00077f e0f0      	LDI  R31,0
000780 5ae0      	SUBI R30,LOW(-_password_G000)
000781 4ffd      	SBCI R31,HIGH(-_password_G000)
000782 81e0      	LD   R30,Z
000783 93ec      	ST   X,R30
000784 9508      	RET
                 
                 ;OPTIMIZER ADDED SUBROUTINE, CALLED 2 TIMES, CODE SIZE REDUCTION:2 WORDS
                 SUBOPT_0xD:
000785 e0e8      	LDI  R30,LOW(8)
000786 93ea      	ST   -Y,R30
000787 01de      	MOVW R26,R28
000788 9615      	ADIW R26,5
000789 940e 05ec 	CALL _mifare_write_block
00078b 30e0      	CPI  R30,0
00078c 9508      	RET
                 
                 ;OPTIMIZER ADDED SUBROUTINE, CALLED 3 TIMES, CODE SIZE REDUCTION:9 WORDS
                 SUBOPT_0xE:
00078d 9a96      	SBI  0x12,6
00078e 9a95      	SBI  0x12,5
00078f eca8      	LDI  R26,LOW(200)
000790 e0b0      	LDI  R27,0
000791 940e 0801 	CALL _delay_ms
000793 cfa9      	RJMP SUBOPT_0x3
                 
                 ;OPTIMIZER ADDED SUBROUTINE, CALLED 3 TIMES, CODE SIZE REDUCTION:1 WORDS
                 SUBOPT_0xF:
000794 940e 06ab 	CALL _lcd_putsf
000796 9895      	CBI  0x12,5
000797 9896      	CBI  0x12,6
000798 9508      	RET
                 
                 ;OPTIMIZER ADDED SUBROUTINE, CALLED 3 TIMES, CODE SIZE REDUCTION:1 WORDS
                 SUBOPT_0x10:
000799 9ac1      	SBI  0x18,1
00079a 9a95      	SBI  0x12,5
00079b cfc3      	RJMP SUBOPT_0x8
                 
                 ;OPTIMIZER ADDED SUBROUTINE, CALLED 2 TIMES, CODE SIZE REDUCTION:4 WORDS
                 SUBOPT_0x11:
00079c e0e0      	LDI  R30,LOW(0)
00079d 93e0 026e 	STS  _write_selected_G000,R30
00079f 940e 05a8 	CALL _mifare_stop_crypto
0007a1 e8a4      	LDI  R26,LOW(900)
0007a2 e0b3      	LDI  R27,HIGH(900)
0007a3 940c 0801 	JMP  _delay_ms
                 
                 ;OPTIMIZER ADDED SUBROUTINE, CALLED 2 TIMES, CODE SIZE REDUCTION:7 WORDS
                 SUBOPT_0x12:
0007a5 e9a6      	LDI  R26,LOW(150)
0007a6 e0b0      	LDI  R27,0
0007a7 940e 0801 	CALL _delay_ms
0007a9 81e8      	LD   R30,Y
0007aa 81f9      	LDD  R31,Y+1
0007ab 9631      	ADIW R30,1
0007ac 83e8      	ST   Y,R30
0007ad 83f9      	STD  Y+1,R31
0007ae 81a8      	LD   R26,Y
0007af 81b9      	LDD  R27,Y+1
0007b0 97dd      	SBIW R26,61
0007b1 9508      	RET
                 
                 ;OPTIMIZER ADDED SUBROUTINE, CALLED 2 TIMES, CODE SIZE REDUCTION:1 WORDS
                 SUBOPT_0x13:
0007b2 93aa      	ST   -Y,R26
0007b3 81e9      	LDD  R30,Y+1
0007b4 93ea      	ST   -Y,R30
0007b5 81aa      	LDD  R26,Y+2
0007b6 940c 035c 	JMP  _rc522_read
                 
                 ;OPTIMIZER ADDED SUBROUTINE, CALLED 2 TIMES, CODE SIZE REDUCTION:8 WORDS
                 SUBOPT_0x14:
0007b8 93ba      	ST   -Y,R27
0007b9 93aa      	ST   -Y,R26
0007ba 931a      	ST   -Y,R17
0007bb e0e1      	LDI  R30,LOW(1)
0007bc 93ea      	ST   -Y,R30
0007bd e0a0      	LDI  R26,LOW(0)
0007be 940e 034e 	CALL _rc522_write
0007c0 e0ea      	LDI  R30,LOW(10)
0007c1 93ea      	ST   -Y,R30
0007c2 e8a0      	LDI  R26,LOW(128)
0007c3 940c 036f 	JMP  _set_bit_mask
                 
                 ;OPTIMIZER ADDED SUBROUTINE, CALLED 2 TIMES, CODE SIZE REDUCTION:1 WORDS
                 SUBOPT_0x15:
0007c5 27ee      	CLR  R30
0007c6 0fa1      	ADD  R26,R17
0007c7 1fbe      	ADC  R27,R30
0007c8 91ac      	LD   R26,X
0007c9 940c 034e 	JMP  _rc522_write
                 
                 ;OPTIMIZER ADDED SUBROUTINE, CALLED 6 TIMES, CODE SIZE REDUCTION:7 WORDS
                 SUBOPT_0x16:
0007cb 93ea      	ST   -Y,R30
0007cc e0a0      	LDI  R26,LOW(0)
0007cd 940c 034e 	JMP  _rc522_write
                 
                 ;OPTIMIZER ADDED SUBROUTINE, CALLED 4 TIMES, CODE SIZE REDUCTION:6 WORDS
                 SUBOPT_0x17:
0007cf 93ea      	ST   -Y,R30
0007d0 01fe      	MOVW R30,R28
0007d1 9637      	ADIW R30,7
0007d2 93fa      	ST   -Y,R31
0007d3 93ea      	ST   -Y,R30
0007d4 9508      	RET
                 
                 ;OPTIMIZER ADDED SUBROUTINE, CALLED 4 TIMES, CODE SIZE REDUCTION:9 WORDS
                 SUBOPT_0x18:
0007d5 e0f0      	LDI  R31,0
0007d6 0fea      	ADD  R30,R26
0007d7 1ffb      	ADC  R31,R27
0007d8 010f      	MOVW R0,R30
0007d9 2fe0      	MOV  R30,R16
0007da e0f0      	LDI  R31,0
0007db 9508      	RET
                 
                 ;OPTIMIZER ADDED SUBROUTINE, CALLED 2 TIMES, CODE SIZE REDUCTION:2 WORDS
                 SUBOPT_0x19:
0007dc 01de      	MOVW R26,R28
0007dd 9614      	ADIW R26,4
0007de 0fae      	ADD  R26,R30
0007df 1fbf      	ADC  R27,R31
0007e0 91ec      	LD   R30,X
0007e1 01d0      	MOVW R26,R0
0007e2 93ec      	ST   X,R30
0007e3 9508      	RET
                 
                 ;OPTIMIZER ADDED SUBROUTINE, CALLED 2 TIMES, CODE SIZE REDUCTION:2 WORDS
                 SUBOPT_0x1A:
0007e4 01de      	MOVW R26,R28
0007e5 9612      	ADIW R26,2
0007e6 0fae      	ADD  R26,R30
0007e7 1fbf      	ADC  R27,R31
0007e8 91ec      	LD   R30,X
0007e9 01d0      	MOVW R26,R0
0007ea 93ec      	ST   X,R30
0007eb 9508      	RET
                 
                 ;OPTIMIZER ADDED SUBROUTINE, CALLED 2 TIMES, CODE SIZE REDUCTION:1 WORDS
                 SUBOPT_0x1B:
0007ec 93ea      	ST   -Y,R30
0007ed 01de      	MOVW R26,R28
0007ee 9691      	ADIW R26,33
0007ef 940e 0381 	CALL _rc522_calc_crc_G001
0007f1 8dee      	LDD  R30,Y+30
0007f2 9508      	RET
                 
                 ;OPTIMIZER ADDED SUBROUTINE, CALLED 2 TIMES, CODE SIZE REDUCTION:1 WORDS
                 SUBOPT_0x1C:
0007f3 940e 066e 	CALL __lcd_write_data
0007f5 e0a3      	LDI  R26,LOW(3)
0007f6 e0b0      	LDI  R27,0
0007f7 940c 0801 	JMP  _delay_ms
                 
                 ;OPTIMIZER ADDED SUBROUTINE, CALLED 3 TIMES, CODE SIZE REDUCTION:7 WORDS
                 SUBOPT_0x1D:
0007f9 e3a0      	LDI  R26,LOW(48)
0007fa 940e 0659 	CALL __lcd_write_nibble_G100
                +
0007fc ec88     +LDI R24 , LOW ( 200 )
0007fd e090     +LDI R25 , HIGH ( 200 )
                +__DELAY_USW_LOOP :
0007fe 9701     +SBIW R24 , 1
0007ff f7f1     +BRNE __DELAY_USW_LOOP
                 	__DELAY_USW 200
000800 9508      	RET
                 
                 
                 	.CSEG
                 _delay_ms:
000801 9610      	adiw r26,0
000802 f039      	breq __delay_ms1
                 __delay_ms0:
000803 95a8      	wdr
                +
000804 ed80     +LDI R24 , LOW ( 0x7D0 )
000805 e097     +LDI R25 , HIGH ( 0x7D0 )
                +__DELAY_USW_LOOP :
000806 9701     +SBIW R24 , 1
000807 f7f1     +BRNE __DELAY_USW_LOOP
                 	__DELAY_USW 0x7D0
000808 9711      	sbiw r26,1
000809 f7c9      	brne __delay_ms0
                 __delay_ms1:
00080a 9508      	ret
                 
                 __ANEGW1:
00080b 95f1      	NEG  R31
00080c 95e1      	NEG  R30
00080d 40f0      	SBCI R31,0
00080e 9508      	RET
                 
                 __MANDW12:
00080f 94e8      	CLT
000810 fff7      	SBRS R31,7
000811 c002      	RJMP __MANDW121
000812 dff8      	RCALL __ANEGW1
000813 9468      	SET
                 __MANDW121:
000814 23ea      	AND  R30,R26
000815 23fb      	AND  R31,R27
000816 f40e      	BRTC __MANDW122
000817 dff3      	RCALL __ANEGW1
                 __MANDW122:
000818 9508      	RET
                 
                 __SAVELOCR4:
000819 933a      	ST   -Y,R19
                 __SAVELOCR3:
00081a 932a      	ST   -Y,R18
                 __SAVELOCR2:
00081b 931a      	ST   -Y,R17
00081c 930a      	ST   -Y,R16
00081d 9508      	RET
                 
                 __LOADLOCR4:
00081e 813b      	LDD  R19,Y+3
                 __LOADLOCR3:
00081f 812a      	LDD  R18,Y+2
                 __LOADLOCR2:
000820 8119      	LDD  R17,Y+1
000821 8108      	LD   R16,Y
000822 9508      	RET
                 
                 ;END OF CODE MARKER
                 __END_OF_CODE:


RESOURCE USE INFORMATION
------------------------

Notice:
The register and instruction counts are symbol table hit counts,
and hence implicitly used resources are not counted, eg, the
'lpm' instruction without operands implicitly uses r0 and z,
none of which are counted.

x,y,z are separate entities in the symbol table and are
counted separately from r26..r31 here.

.dseg memory usage only counts static data declared with .byte

ATmega32 register use summary:
r0 :   9 r1 :   1 r2 :   0 r3 :   0 r4 :   4 r5 :   4 r6 :   0 r7 :   2 
r8 :   0 r9 :   0 r10:   0 r11:   0 r12:   0 r13:   0 r14:   0 r15:   0 
r16:  40 r17:  80 r18:   2 r19:  17 r20:   0 r21:   0 r22:  11 r23:   8 
r24:  27 r25:   6 r26: 277 r27: 101 r28:  66 r29:   1 r30: 558 r31:  81 
x  :  26 y  : 363 z  :  23 
Registers used: 22 out of 35 (62.9%)

ATmega32 instruction use summary:
.lds  :   0 .lds.l:   0 .sts  :   0 .sts.l:   0 adc   :   9 add   :  11 
adiw  :  62 and   :   3 andi  :  16 asr   :   0 bclr  :   0 bld   :   0 
brbc  :   0 brbs  :   0 brcc  :   2 brcs  :   0 break :   0 breq  :  39 
brge  :   0 brhc  :   0 brhs  :   0 brid  :   0 brie  :   0 brlo  :   1 
brlt  :   0 brmi  :   0 brne  :  45 brpl  :   0 brsh  :  20 brtc  :   1 
brts  :   0 brvc  :   0 brvs  :   0 bset  :   0 bst   :   0 call  : 137 
cbi   :  14 cbr   :   0 clc   :   0 clh   :   0 cli   :   1 cln   :   0 
clr   :  10 cls   :   0 clt   :   1 clv   :   0 clz   :   0 com   :   1 
cp    :   8 cpc   :   0 cpi   :  58 cpse  :   0 dec   :   6 des   :   0 
eor   :   6 fmul  :   0 fmuls :   0 fmulsu:   0 icall :   0 ijmp  :   0 
in    :  19 inc   :   3 jmp   :  45 ld    :  58 ldd   : 139 ldi   : 306 
lds   :  17 lpm   :   9 lsl   :   8 lsr   :   0 mov   :  35 movw  :  41 
mul   :   0 muls  :   0 mulsu :   0 neg   :   2 nop   :   0 or    :   2 
ori   :   3 out   :  30 pop   :   9 push  :   9 rcall :  81 ret   :  47 
reti  :   1 rjmp  :  84 rol   :   0 ror   :   0 sbc   :   0 sbci  :   4 
sbi   :  12 sbic  :   0 sbis  :   1 sbiw  :  30 sbr   :   0 sbrc  :   0 
sbrs  :   1 sec   :   0 seh   :   0 sei   :   1 sen   :   0 ser   :   0 
ses   :   0 set   :   1 sev   :   0 sez   :   0 sleep :   0 spm   :   0 
st    : 169 std   :  38 sts   :  25 sub   :   2 subi  :  27 swap  :   1 
tst   :   2 wdr   :   1 
Instructions used: 57 out of 116 (49.1%)

ATmega32 memory use summary [bytes]:
Segment   Begin    End      Code   Data   Used    Size   Use%
---------------------------------------------------------------
[.cseg] 0x000000 0x001046   3874    292   4166   32768  12.7%
[.dseg] 0x000060 0x00027b      0     27     27    2048   1.3%
[.eseg] 0x000000 0x000000      0      0      0    1024   0.0%

Assembly complete, 0 errors, 4 warnings
